ARM GAS  C:\Users\214016~1\AppData\Local\Temp\ccgWWHze.s 			page 1


   1              		.syntax unified
   2              		.cpu cortex-m3
   3              		.fpu softvfp
   4              		.eabi_attribute 20, 1
   5              		.eabi_attribute 21, 1
   6              		.eabi_attribute 23, 3
   7              		.eabi_attribute 24, 1
   8              		.eabi_attribute 25, 1
   9              		.eabi_attribute 26, 1
  10              		.eabi_attribute 30, 1
  11              		.eabi_attribute 34, 1
  12              		.eabi_attribute 18, 4
  13              		.thumb
  14              		.file	"cyfitter_cfg.c"
  15              		.text
  16              	.Ltext0:
  17              		.cfi_sections	.debug_frame
  18              		.section	.text.CyClockStartupError,"ax",%progbits
  19              		.align	2
  20              		.thumb
  21              		.thumb_func
  22              		.type	CyClockStartupError, %function
  23              	CyClockStartupError:
  24              	.LFB3:
  25              		.file 1 ".\\Generated_Source\\PSoC5\\cyfitter_cfg.c"
   1:.\Generated_Source\PSoC5/cyfitter_cfg.c **** /*******************************************************************************
   2:.\Generated_Source\PSoC5/cyfitter_cfg.c **** * File Name: cyfitter_cfg.c
   3:.\Generated_Source\PSoC5/cyfitter_cfg.c **** * 
   4:.\Generated_Source\PSoC5/cyfitter_cfg.c **** * PSoC Creator  3.3 CP2
   5:.\Generated_Source\PSoC5/cyfitter_cfg.c **** *
   6:.\Generated_Source\PSoC5/cyfitter_cfg.c **** * Description:
   7:.\Generated_Source\PSoC5/cyfitter_cfg.c **** * This file contains device initialization code.
   8:.\Generated_Source\PSoC5/cyfitter_cfg.c **** * Except for the user defined sections in CyClockStartupError(), this file should not be modified.
   9:.\Generated_Source\PSoC5/cyfitter_cfg.c **** * This file is automatically generated by PSoC Creator.
  10:.\Generated_Source\PSoC5/cyfitter_cfg.c **** *
  11:.\Generated_Source\PSoC5/cyfitter_cfg.c **** ********************************************************************************
  12:.\Generated_Source\PSoC5/cyfitter_cfg.c **** * Copyright (c) 2007-2015 Cypress Semiconductor.  All rights reserved.
  13:.\Generated_Source\PSoC5/cyfitter_cfg.c **** * You may use this file only in accordance with the license, terms, conditions, 
  14:.\Generated_Source\PSoC5/cyfitter_cfg.c **** * disclaimers, and limitations in the end user license agreement accompanying 
  15:.\Generated_Source\PSoC5/cyfitter_cfg.c **** * the software package with which this file was provided.
  16:.\Generated_Source\PSoC5/cyfitter_cfg.c **** ********************************************************************************/
  17:.\Generated_Source\PSoC5/cyfitter_cfg.c **** 
  18:.\Generated_Source\PSoC5/cyfitter_cfg.c **** #include <string.h>
  19:.\Generated_Source\PSoC5/cyfitter_cfg.c **** #include "cytypes.h"
  20:.\Generated_Source\PSoC5/cyfitter_cfg.c **** #include "cydevice_trm.h"
  21:.\Generated_Source\PSoC5/cyfitter_cfg.c **** #include "cyfitter.h"
  22:.\Generated_Source\PSoC5/cyfitter_cfg.c **** #include "CyLib.h"
  23:.\Generated_Source\PSoC5/cyfitter_cfg.c **** #include "cyfitter_cfg.h"
  24:.\Generated_Source\PSoC5/cyfitter_cfg.c **** 
  25:.\Generated_Source\PSoC5/cyfitter_cfg.c **** #define CY_NEED_CYCLOCKSTARTUPERROR 1
  26:.\Generated_Source\PSoC5/cyfitter_cfg.c **** 
  27:.\Generated_Source\PSoC5/cyfitter_cfg.c **** 
  28:.\Generated_Source\PSoC5/cyfitter_cfg.c **** #if defined(__GNUC__) || defined(__ARMCC_VERSION)
  29:.\Generated_Source\PSoC5/cyfitter_cfg.c ****     #define CYPACKED 
  30:.\Generated_Source\PSoC5/cyfitter_cfg.c ****     #define CYPACKED_ATTR __attribute__ ((packed))
  31:.\Generated_Source\PSoC5/cyfitter_cfg.c ****     #define CYALIGNED __attribute__ ((aligned))
  32:.\Generated_Source\PSoC5/cyfitter_cfg.c ****     #define CY_CFG_UNUSED __attribute__ ((unused))
ARM GAS  C:\Users\214016~1\AppData\Local\Temp\ccgWWHze.s 			page 2


  33:.\Generated_Source\PSoC5/cyfitter_cfg.c ****     #ifndef CY_CFG_SECTION
  34:.\Generated_Source\PSoC5/cyfitter_cfg.c ****         #define CY_CFG_SECTION __attribute__ ((section(".psocinit")))
  35:.\Generated_Source\PSoC5/cyfitter_cfg.c ****     #endif
  36:.\Generated_Source\PSoC5/cyfitter_cfg.c ****     
  37:.\Generated_Source\PSoC5/cyfitter_cfg.c ****     #if defined(__ARMCC_VERSION)
  38:.\Generated_Source\PSoC5/cyfitter_cfg.c ****         #define CY_CFG_MEMORY_BARRIER() __memory_changed()
  39:.\Generated_Source\PSoC5/cyfitter_cfg.c ****     #else
  40:.\Generated_Source\PSoC5/cyfitter_cfg.c ****         #define CY_CFG_MEMORY_BARRIER() __sync_synchronize()
  41:.\Generated_Source\PSoC5/cyfitter_cfg.c ****     #endif
  42:.\Generated_Source\PSoC5/cyfitter_cfg.c ****     
  43:.\Generated_Source\PSoC5/cyfitter_cfg.c **** #elif defined(__ICCARM__)
  44:.\Generated_Source\PSoC5/cyfitter_cfg.c ****     #include <intrinsics.h>
  45:.\Generated_Source\PSoC5/cyfitter_cfg.c **** 
  46:.\Generated_Source\PSoC5/cyfitter_cfg.c ****     #define CYPACKED __packed
  47:.\Generated_Source\PSoC5/cyfitter_cfg.c ****     #define CYPACKED_ATTR 
  48:.\Generated_Source\PSoC5/cyfitter_cfg.c ****     #define CYALIGNED _Pragma("data_alignment=4")
  49:.\Generated_Source\PSoC5/cyfitter_cfg.c ****     #define CY_CFG_UNUSED _Pragma("diag_suppress=Pe177")
  50:.\Generated_Source\PSoC5/cyfitter_cfg.c ****     #define CY_CFG_SECTION _Pragma("location=\".psocinit\"")
  51:.\Generated_Source\PSoC5/cyfitter_cfg.c ****     
  52:.\Generated_Source\PSoC5/cyfitter_cfg.c ****     #define CY_CFG_MEMORY_BARRIER() __DMB()
  53:.\Generated_Source\PSoC5/cyfitter_cfg.c ****     
  54:.\Generated_Source\PSoC5/cyfitter_cfg.c **** #else
  55:.\Generated_Source\PSoC5/cyfitter_cfg.c ****     #error Unsupported toolchain
  56:.\Generated_Source\PSoC5/cyfitter_cfg.c **** #endif
  57:.\Generated_Source\PSoC5/cyfitter_cfg.c **** 
  58:.\Generated_Source\PSoC5/cyfitter_cfg.c **** 
  59:.\Generated_Source\PSoC5/cyfitter_cfg.c **** CY_CFG_UNUSED
  60:.\Generated_Source\PSoC5/cyfitter_cfg.c **** static void CYMEMZERO(void *s, size_t n);
  61:.\Generated_Source\PSoC5/cyfitter_cfg.c **** CY_CFG_UNUSED
  62:.\Generated_Source\PSoC5/cyfitter_cfg.c **** static void CYMEMZERO(void *s, size_t n)
  63:.\Generated_Source\PSoC5/cyfitter_cfg.c **** {
  64:.\Generated_Source\PSoC5/cyfitter_cfg.c **** 	(void)memset(s, 0, n);
  65:.\Generated_Source\PSoC5/cyfitter_cfg.c **** }
  66:.\Generated_Source\PSoC5/cyfitter_cfg.c **** CY_CFG_UNUSED
  67:.\Generated_Source\PSoC5/cyfitter_cfg.c **** static void CYCONFIGCPY(void *dest, const void *src, size_t n);
  68:.\Generated_Source\PSoC5/cyfitter_cfg.c **** CY_CFG_UNUSED
  69:.\Generated_Source\PSoC5/cyfitter_cfg.c **** static void CYCONFIGCPY(void *dest, const void *src, size_t n)
  70:.\Generated_Source\PSoC5/cyfitter_cfg.c **** {
  71:.\Generated_Source\PSoC5/cyfitter_cfg.c **** 	(void)memcpy(dest, src, n);
  72:.\Generated_Source\PSoC5/cyfitter_cfg.c **** }
  73:.\Generated_Source\PSoC5/cyfitter_cfg.c **** CY_CFG_UNUSED
  74:.\Generated_Source\PSoC5/cyfitter_cfg.c **** static void CYCONFIGCPYCODE(void *dest, const void *src, size_t n);
  75:.\Generated_Source\PSoC5/cyfitter_cfg.c **** CY_CFG_UNUSED
  76:.\Generated_Source\PSoC5/cyfitter_cfg.c **** static void CYCONFIGCPYCODE(void *dest, const void *src, size_t n)
  77:.\Generated_Source\PSoC5/cyfitter_cfg.c **** {
  78:.\Generated_Source\PSoC5/cyfitter_cfg.c **** 	(void)memcpy(dest, src, n);
  79:.\Generated_Source\PSoC5/cyfitter_cfg.c **** }
  80:.\Generated_Source\PSoC5/cyfitter_cfg.c **** 
  81:.\Generated_Source\PSoC5/cyfitter_cfg.c **** 
  82:.\Generated_Source\PSoC5/cyfitter_cfg.c **** 
  83:.\Generated_Source\PSoC5/cyfitter_cfg.c **** /* Clock startup error codes                                                   */
  84:.\Generated_Source\PSoC5/cyfitter_cfg.c **** #define CYCLOCKSTART_NO_ERROR    0u
  85:.\Generated_Source\PSoC5/cyfitter_cfg.c **** #define CYCLOCKSTART_XTAL_ERROR  1u
  86:.\Generated_Source\PSoC5/cyfitter_cfg.c **** #define CYCLOCKSTART_32KHZ_ERROR 2u
  87:.\Generated_Source\PSoC5/cyfitter_cfg.c **** #define CYCLOCKSTART_PLL_ERROR   3u
  88:.\Generated_Source\PSoC5/cyfitter_cfg.c **** 
  89:.\Generated_Source\PSoC5/cyfitter_cfg.c **** #ifdef CY_NEED_CYCLOCKSTARTUPERROR
ARM GAS  C:\Users\214016~1\AppData\Local\Temp\ccgWWHze.s 			page 3


  90:.\Generated_Source\PSoC5/cyfitter_cfg.c **** /*******************************************************************************
  91:.\Generated_Source\PSoC5/cyfitter_cfg.c **** * Function Name: CyClockStartupError
  92:.\Generated_Source\PSoC5/cyfitter_cfg.c **** ********************************************************************************
  93:.\Generated_Source\PSoC5/cyfitter_cfg.c **** * Summary:
  94:.\Generated_Source\PSoC5/cyfitter_cfg.c **** *  If an error is encountered during clock configuration (crystal startup error,
  95:.\Generated_Source\PSoC5/cyfitter_cfg.c **** *  PLL lock error, etc.), the system will end up here.  Unless reimplemented by
  96:.\Generated_Source\PSoC5/cyfitter_cfg.c **** *  the customer, this function will stop in an infinite loop.
  97:.\Generated_Source\PSoC5/cyfitter_cfg.c **** *
  98:.\Generated_Source\PSoC5/cyfitter_cfg.c **** * Parameters:
  99:.\Generated_Source\PSoC5/cyfitter_cfg.c **** *   void
 100:.\Generated_Source\PSoC5/cyfitter_cfg.c **** *
 101:.\Generated_Source\PSoC5/cyfitter_cfg.c **** * Return:
 102:.\Generated_Source\PSoC5/cyfitter_cfg.c **** *   void
 103:.\Generated_Source\PSoC5/cyfitter_cfg.c **** *
 104:.\Generated_Source\PSoC5/cyfitter_cfg.c **** *******************************************************************************/
 105:.\Generated_Source\PSoC5/cyfitter_cfg.c **** CY_CFG_UNUSED
 106:.\Generated_Source\PSoC5/cyfitter_cfg.c **** static void CyClockStartupError(uint8 errorCode);
 107:.\Generated_Source\PSoC5/cyfitter_cfg.c **** CY_CFG_UNUSED
 108:.\Generated_Source\PSoC5/cyfitter_cfg.c **** static void CyClockStartupError(uint8 errorCode)
 109:.\Generated_Source\PSoC5/cyfitter_cfg.c **** {
  26              		.loc 1 109 0
  27              		.cfi_startproc
  28              		@ Volatile: function does not return.
  29              		@ args = 0, pretend = 0, frame = 0
  30              		@ frame_needed = 0, uses_anonymous_args = 0
  31              		@ link register save eliminated.
  32              	.LVL0:
  33              	.L2:
 110:.\Generated_Source\PSoC5/cyfitter_cfg.c ****     /* To remove the compiler warning if errorCode not used.                */
 111:.\Generated_Source\PSoC5/cyfitter_cfg.c ****     errorCode = errorCode;
 112:.\Generated_Source\PSoC5/cyfitter_cfg.c **** 
 113:.\Generated_Source\PSoC5/cyfitter_cfg.c ****     /* `#START CyClockStartupError` */
 114:.\Generated_Source\PSoC5/cyfitter_cfg.c **** 
 115:.\Generated_Source\PSoC5/cyfitter_cfg.c ****     /* If we have a clock startup error (bad MHz crystal, PLL lock, etc.),  */
 116:.\Generated_Source\PSoC5/cyfitter_cfg.c ****     /* we will end up here to allow the customer to implement something to  */
 117:.\Generated_Source\PSoC5/cyfitter_cfg.c ****     /* deal with the clock condition.                                       */
 118:.\Generated_Source\PSoC5/cyfitter_cfg.c **** 
 119:.\Generated_Source\PSoC5/cyfitter_cfg.c ****     /* `#END` */
 120:.\Generated_Source\PSoC5/cyfitter_cfg.c **** 
 121:.\Generated_Source\PSoC5/cyfitter_cfg.c ****     /* If nothing else, stop here since the clocks have not started         */
 122:.\Generated_Source\PSoC5/cyfitter_cfg.c ****     /* correctly.                                                           */
 123:.\Generated_Source\PSoC5/cyfitter_cfg.c ****     while(1) {}
  34              		.loc 1 123 0 discriminator 1
  35 0000 FEE7     		b	.L2
  36              		.cfi_endproc
  37              	.LFE3:
  38              		.size	CyClockStartupError, .-CyClockStartupError
  39 0002 00BF     		.section	.text.cfg_write_bytes32,"ax",%progbits
  40              		.align	2
  41              		.thumb
  42              		.thumb_func
  43              		.type	cfg_write_bytes32, %function
  44              	cfg_write_bytes32:
  45              	.LFB4:
 124:.\Generated_Source\PSoC5/cyfitter_cfg.c **** }
 125:.\Generated_Source\PSoC5/cyfitter_cfg.c **** #endif
 126:.\Generated_Source\PSoC5/cyfitter_cfg.c **** 
ARM GAS  C:\Users\214016~1\AppData\Local\Temp\ccgWWHze.s 			page 4


 127:.\Generated_Source\PSoC5/cyfitter_cfg.c **** #define CY_CFG_BASE_ADDR_COUNT 41u
 128:.\Generated_Source\PSoC5/cyfitter_cfg.c **** CYPACKED typedef struct
 129:.\Generated_Source\PSoC5/cyfitter_cfg.c **** {
 130:.\Generated_Source\PSoC5/cyfitter_cfg.c **** 	uint8 offset;
 131:.\Generated_Source\PSoC5/cyfitter_cfg.c **** 	uint8 value;
 132:.\Generated_Source\PSoC5/cyfitter_cfg.c **** } CYPACKED_ATTR cy_cfg_addrvalue_t;
 133:.\Generated_Source\PSoC5/cyfitter_cfg.c **** 
 134:.\Generated_Source\PSoC5/cyfitter_cfg.c **** #define cy_cfg_addr_table ((const uint32 CYFAR *)0x48000000u)
 135:.\Generated_Source\PSoC5/cyfitter_cfg.c **** #define cy_cfg_data_table ((const cy_cfg_addrvalue_t CYFAR *)0x480000A4u)
 136:.\Generated_Source\PSoC5/cyfitter_cfg.c **** 
 137:.\Generated_Source\PSoC5/cyfitter_cfg.c **** /* UCFG_BCTL0 Address: CYREG_BCTL0_MDCLK_EN Size (bytes): 16 */
 138:.\Generated_Source\PSoC5/cyfitter_cfg.c **** #define BS_UCFG_BCTL0_VAL ((const uint8 CYFAR *)0x48000B50u)
 139:.\Generated_Source\PSoC5/cyfitter_cfg.c **** 
 140:.\Generated_Source\PSoC5/cyfitter_cfg.c **** /* IOPINS0_0 Address: CYREG_PRT0_DM0 Size (bytes): 8 */
 141:.\Generated_Source\PSoC5/cyfitter_cfg.c **** #define BS_IOPINS0_0_VAL ((const uint8 CYFAR *)0x48000B60u)
 142:.\Generated_Source\PSoC5/cyfitter_cfg.c **** 
 143:.\Generated_Source\PSoC5/cyfitter_cfg.c **** /* IOPINS0_7 Address: CYREG_PRT12_DM0 Size (bytes): 8 */
 144:.\Generated_Source\PSoC5/cyfitter_cfg.c **** #define BS_IOPINS0_7_VAL ((const uint8 CYFAR *)0x48000B68u)
 145:.\Generated_Source\PSoC5/cyfitter_cfg.c **** 
 146:.\Generated_Source\PSoC5/cyfitter_cfg.c **** /* IOPINS0_8 Address: CYREG_PRT15_DR Size (bytes): 10 */
 147:.\Generated_Source\PSoC5/cyfitter_cfg.c **** #define BS_IOPINS0_8_VAL ((const uint8 CYFAR *)0x48000B70u)
 148:.\Generated_Source\PSoC5/cyfitter_cfg.c **** 
 149:.\Generated_Source\PSoC5/cyfitter_cfg.c **** /* IOPINS0_1 Address: CYREG_PRT1_DM0 Size (bytes): 8 */
 150:.\Generated_Source\PSoC5/cyfitter_cfg.c **** #define BS_IOPINS0_1_VAL ((const uint8 CYFAR *)0x48000B7Cu)
 151:.\Generated_Source\PSoC5/cyfitter_cfg.c **** 
 152:.\Generated_Source\PSoC5/cyfitter_cfg.c **** /* IOPINS0_2 Address: CYREG_PRT2_DM0 Size (bytes): 8 */
 153:.\Generated_Source\PSoC5/cyfitter_cfg.c **** #define BS_IOPINS0_2_VAL ((const uint8 CYFAR *)0x48000B84u)
 154:.\Generated_Source\PSoC5/cyfitter_cfg.c **** 
 155:.\Generated_Source\PSoC5/cyfitter_cfg.c **** /* IOPINS0_3 Address: CYREG_PRT3_DM0 Size (bytes): 8 */
 156:.\Generated_Source\PSoC5/cyfitter_cfg.c **** #define BS_IOPINS0_3_VAL ((const uint8 CYFAR *)0x48000B8Cu)
 157:.\Generated_Source\PSoC5/cyfitter_cfg.c **** 
 158:.\Generated_Source\PSoC5/cyfitter_cfg.c **** /* CYDEV_CLKDIST_ACFG0_CFG0 Address: CYREG_CLKDIST_ACFG0_CFG0 Size (bytes): 4 */
 159:.\Generated_Source\PSoC5/cyfitter_cfg.c **** #define BS_CYDEV_CLKDIST_ACFG0_CFG0_VAL ((const uint8 CYFAR *)0x48000B94u)
 160:.\Generated_Source\PSoC5/cyfitter_cfg.c **** 
 161:.\Generated_Source\PSoC5/cyfitter_cfg.c **** /* PHUB_CFGMEM1 Address: CYREG_PHUB_CFGMEM1_CFG0 Size (bytes): 4 */
 162:.\Generated_Source\PSoC5/cyfitter_cfg.c **** #define BS_PHUB_CFGMEM1_VAL ((const uint8 CYFAR *)0x48000B98u)
 163:.\Generated_Source\PSoC5/cyfitter_cfg.c **** 
 164:.\Generated_Source\PSoC5/cyfitter_cfg.c **** 
 165:.\Generated_Source\PSoC5/cyfitter_cfg.c **** /*******************************************************************************
 166:.\Generated_Source\PSoC5/cyfitter_cfg.c **** * Function Name: cfg_write_bytes32
 167:.\Generated_Source\PSoC5/cyfitter_cfg.c **** ********************************************************************************
 168:.\Generated_Source\PSoC5/cyfitter_cfg.c **** * Summary:
 169:.\Generated_Source\PSoC5/cyfitter_cfg.c **** *  This function is used for setting up the chip configuration areas that
 170:.\Generated_Source\PSoC5/cyfitter_cfg.c **** *  contain relatively sparse data.
 171:.\Generated_Source\PSoC5/cyfitter_cfg.c **** *
 172:.\Generated_Source\PSoC5/cyfitter_cfg.c **** * Parameters:
 173:.\Generated_Source\PSoC5/cyfitter_cfg.c **** *   void
 174:.\Generated_Source\PSoC5/cyfitter_cfg.c **** *
 175:.\Generated_Source\PSoC5/cyfitter_cfg.c **** * Return:
 176:.\Generated_Source\PSoC5/cyfitter_cfg.c **** *   void
 177:.\Generated_Source\PSoC5/cyfitter_cfg.c **** *
 178:.\Generated_Source\PSoC5/cyfitter_cfg.c **** *******************************************************************************/
 179:.\Generated_Source\PSoC5/cyfitter_cfg.c **** static void cfg_write_bytes32(const uint32 addr_table[], const cy_cfg_addrvalue_t data_table[]);
 180:.\Generated_Source\PSoC5/cyfitter_cfg.c **** static void cfg_write_bytes32(const uint32 addr_table[], const cy_cfg_addrvalue_t data_table[])
 181:.\Generated_Source\PSoC5/cyfitter_cfg.c **** {
  46              		.loc 1 181 0
  47              		.cfi_startproc
ARM GAS  C:\Users\214016~1\AppData\Local\Temp\ccgWWHze.s 			page 5


  48              		@ args = 0, pretend = 0, frame = 0
  49              		@ frame_needed = 0, uses_anonymous_args = 0
  50              		@ link register save eliminated.
  51              	.LVL1:
  52 0000 F0B4     		push	{r4, r5, r6, r7}
  53              		.cfi_def_cfa_offset 16
  54              		.cfi_offset 4, -16
  55              		.cfi_offset 5, -12
  56              		.cfi_offset 6, -8
  57              		.cfi_offset 7, -4
  58              	.LVL2:
 182:.\Generated_Source\PSoC5/cyfitter_cfg.c **** 	/* For 32-bit little-endian architectures */
 183:.\Generated_Source\PSoC5/cyfitter_cfg.c **** 	uint32 i, j = 0u;
  59              		.loc 1 183 0
  60 0002 0022     		movs	r2, #0
 184:.\Generated_Source\PSoC5/cyfitter_cfg.c **** 	for (i = 0u; i < CY_CFG_BASE_ADDR_COUNT; i++)
  61              		.loc 1 184 0
  62 0004 1746     		mov	r7, r2
  63 0006 11E0     		b	.L4
  64              	.LVL3:
  65              	.L7:
  66              	.LBB2:
 185:.\Generated_Source\PSoC5/cyfitter_cfg.c **** 	{
 186:.\Generated_Source\PSoC5/cyfitter_cfg.c **** 		uint32 baseAddr = addr_table[i];
  67              		.loc 1 186 0
  68 0008 50F82760 		ldr	r6, [r0, r7, lsl #2]
  69              	.LVL4:
 187:.\Generated_Source\PSoC5/cyfitter_cfg.c **** 		uint8 count = (uint8)baseAddr;
  70              		.loc 1 187 0
  71 000c F3B2     		uxtb	r3, r6
  72              	.LVL5:
 188:.\Generated_Source\PSoC5/cyfitter_cfg.c **** 		baseAddr &= 0xFFFFFF00u;
  73              		.loc 1 188 0
  74 000e 26F0FF06 		bic	r6, r6, #255
  75              	.LVL6:
 189:.\Generated_Source\PSoC5/cyfitter_cfg.c **** 		while (count != 0u)
  76              		.loc 1 189 0
  77 0012 08E0     		b	.L5
  78              	.L6:
 190:.\Generated_Source\PSoC5/cyfitter_cfg.c **** 		{
 191:.\Generated_Source\PSoC5/cyfitter_cfg.c **** 			CY_SET_XTND_REG8((void CYFAR *)(baseAddr + data_table[j].offset), data_table[j].value);
  79              		.loc 1 191 0
  80 0014 01EB4205 		add	r5, r1, r2, lsl #1
  81 0018 11F81240 		ldrb	r4, [r1, r2, lsl #1]	@ zero_extendqisi2
  82 001c 6D78     		ldrb	r5, [r5, #1]	@ zero_extendqisi2
  83 001e A555     		strb	r5, [r4, r6]
 192:.\Generated_Source\PSoC5/cyfitter_cfg.c **** 			j++;
  84              		.loc 1 192 0
  85 0020 0132     		adds	r2, r2, #1
  86              	.LVL7:
 193:.\Generated_Source\PSoC5/cyfitter_cfg.c **** 			count--;
  87              		.loc 1 193 0
  88 0022 013B     		subs	r3, r3, #1
  89              	.LVL8:
  90 0024 DBB2     		uxtb	r3, r3
  91              	.LVL9:
  92              	.L5:
ARM GAS  C:\Users\214016~1\AppData\Local\Temp\ccgWWHze.s 			page 6


 189:.\Generated_Source\PSoC5/cyfitter_cfg.c **** 		{
  93              		.loc 1 189 0
  94 0026 002B     		cmp	r3, #0
  95 0028 F4D1     		bne	.L6
  96              	.LBE2:
 184:.\Generated_Source\PSoC5/cyfitter_cfg.c **** 	{
  97              		.loc 1 184 0 discriminator 2
  98 002a 0137     		adds	r7, r7, #1
  99              	.LVL10:
 100              	.L4:
 184:.\Generated_Source\PSoC5/cyfitter_cfg.c **** 	{
 101              		.loc 1 184 0 is_stmt 0 discriminator 1
 102 002c 282F     		cmp	r7, #40
 103 002e EBD9     		bls	.L7
 194:.\Generated_Source\PSoC5/cyfitter_cfg.c **** 		}
 195:.\Generated_Source\PSoC5/cyfitter_cfg.c **** 	}
 196:.\Generated_Source\PSoC5/cyfitter_cfg.c **** }
 104              		.loc 1 196 0 is_stmt 1
 105 0030 F0BC     		pop	{r4, r5, r6, r7}
 106              		.cfi_restore 7
 107              		.cfi_restore 6
 108              		.cfi_restore 5
 109              		.cfi_restore 4
 110              		.cfi_def_cfa_offset 0
 111              	.LVL11:
 112 0032 7047     		bx	lr
 113              		.cfi_endproc
 114              	.LFE4:
 115              		.size	cfg_write_bytes32, .-cfg_write_bytes32
 116              		.section	.text.AnalogSetDefault,"ax",%progbits
 117              		.align	2
 118              		.thumb
 119              		.thumb_func
 120              		.type	AnalogSetDefault, %function
 121              	AnalogSetDefault:
 122              	.LFB6:
 197:.\Generated_Source\PSoC5/cyfitter_cfg.c **** 
 198:.\Generated_Source\PSoC5/cyfitter_cfg.c **** /*******************************************************************************
 199:.\Generated_Source\PSoC5/cyfitter_cfg.c **** * Function Name: ClockSetup
 200:.\Generated_Source\PSoC5/cyfitter_cfg.c **** ********************************************************************************
 201:.\Generated_Source\PSoC5/cyfitter_cfg.c **** *
 202:.\Generated_Source\PSoC5/cyfitter_cfg.c **** * Summary:
 203:.\Generated_Source\PSoC5/cyfitter_cfg.c **** *  Performs the initialization of all of the clocks in the device based on the
 204:.\Generated_Source\PSoC5/cyfitter_cfg.c **** *  settings in the Clock tab of the DWR.  This includes enabling the requested
 205:.\Generated_Source\PSoC5/cyfitter_cfg.c **** *  clocks and setting the necessary dividers to produce the desired frequency. 
 206:.\Generated_Source\PSoC5/cyfitter_cfg.c **** *
 207:.\Generated_Source\PSoC5/cyfitter_cfg.c **** * Parameters:
 208:.\Generated_Source\PSoC5/cyfitter_cfg.c **** *  void
 209:.\Generated_Source\PSoC5/cyfitter_cfg.c **** *
 210:.\Generated_Source\PSoC5/cyfitter_cfg.c **** * Return:
 211:.\Generated_Source\PSoC5/cyfitter_cfg.c **** *  void
 212:.\Generated_Source\PSoC5/cyfitter_cfg.c **** *
 213:.\Generated_Source\PSoC5/cyfitter_cfg.c **** *******************************************************************************/
 214:.\Generated_Source\PSoC5/cyfitter_cfg.c **** static void ClockSetup(void);
 215:.\Generated_Source\PSoC5/cyfitter_cfg.c **** static void ClockSetup(void)
 216:.\Generated_Source\PSoC5/cyfitter_cfg.c **** {
 217:.\Generated_Source\PSoC5/cyfitter_cfg.c **** 	uint32 timeout;
ARM GAS  C:\Users\214016~1\AppData\Local\Temp\ccgWWHze.s 			page 7


 218:.\Generated_Source\PSoC5/cyfitter_cfg.c **** 	uint8 pllLock;
 219:.\Generated_Source\PSoC5/cyfitter_cfg.c **** 
 220:.\Generated_Source\PSoC5/cyfitter_cfg.c **** 
 221:.\Generated_Source\PSoC5/cyfitter_cfg.c **** 	/* Configure Digital Clocks based on settings from Clock DWR */
 222:.\Generated_Source\PSoC5/cyfitter_cfg.c **** 	CY_SET_XTND_REG16((void CYFAR *)(CYREG_CLKDIST_DCFG0_CFG0), 0x03FFu);
 223:.\Generated_Source\PSoC5/cyfitter_cfg.c **** 	CY_SET_XTND_REG8((void CYFAR *)(CYREG_CLKDIST_DCFG0_CFG0 + 0x2u), 0x18u);
 224:.\Generated_Source\PSoC5/cyfitter_cfg.c **** 	CY_SET_XTND_REG16((void CYFAR *)(CYREG_CLKDIST_DCFG1_CFG0), 0x0000u);
 225:.\Generated_Source\PSoC5/cyfitter_cfg.c **** 	CY_SET_XTND_REG8((void CYFAR *)(CYREG_CLKDIST_DCFG1_CFG0 + 0x2u), 0x50u);
 226:.\Generated_Source\PSoC5/cyfitter_cfg.c **** 	CY_SET_XTND_REG16((void CYFAR *)(CYREG_CLKDIST_DCFG2_CFG0), 0x0000u);
 227:.\Generated_Source\PSoC5/cyfitter_cfg.c **** 	CY_SET_XTND_REG8((void CYFAR *)(CYREG_CLKDIST_DCFG2_CFG0 + 0x2u), 0x19u);
 228:.\Generated_Source\PSoC5/cyfitter_cfg.c **** 	CY_SET_XTND_REG16((void CYFAR *)(CYREG_CLKDIST_DCFG3_CFG0), 0x002Eu);
 229:.\Generated_Source\PSoC5/cyfitter_cfg.c **** 	CY_SET_XTND_REG8((void CYFAR *)(CYREG_CLKDIST_DCFG3_CFG0 + 0x2u), 0x18u);
 230:.\Generated_Source\PSoC5/cyfitter_cfg.c **** 	CY_SET_XTND_REG16((void CYFAR *)(CYREG_CLKDIST_DCFG4_CFG0), 0x0257u);
 231:.\Generated_Source\PSoC5/cyfitter_cfg.c **** 	CY_SET_XTND_REG8((void CYFAR *)(CYREG_CLKDIST_DCFG4_CFG0 + 0x2u), 0x18u);
 232:.\Generated_Source\PSoC5/cyfitter_cfg.c **** 	CY_SET_XTND_REG16((void CYFAR *)(CYREG_CLKDIST_DCFG5_CFG0), 0x0257u);
 233:.\Generated_Source\PSoC5/cyfitter_cfg.c **** 	CY_SET_XTND_REG8((void CYFAR *)(CYREG_CLKDIST_DCFG5_CFG0 + 0x2u), 0x18u);
 234:.\Generated_Source\PSoC5/cyfitter_cfg.c **** 
 235:.\Generated_Source\PSoC5/cyfitter_cfg.c **** 	/* Configure Analog Clocks based on settings from Clock DWR */
 236:.\Generated_Source\PSoC5/cyfitter_cfg.c **** 	CYCONFIGCPY((void CYFAR *)(CYREG_CLKDIST_ACFG0_CFG0), (const void CYFAR *)(BS_CYDEV_CLKDIST_ACFG0_
 237:.\Generated_Source\PSoC5/cyfitter_cfg.c **** 
 238:.\Generated_Source\PSoC5/cyfitter_cfg.c **** 	/* Configure ILO based on settings from Clock DWR */
 239:.\Generated_Source\PSoC5/cyfitter_cfg.c **** 	CY_SET_XTND_REG8((void CYFAR *)(CYREG_SLOWCLK_ILO_CR0), 0x06u);
 240:.\Generated_Source\PSoC5/cyfitter_cfg.c **** 
 241:.\Generated_Source\PSoC5/cyfitter_cfg.c **** 	/* Configure IMO based on settings from Clock DWR */
 242:.\Generated_Source\PSoC5/cyfitter_cfg.c **** 	CY_SET_XTND_REG8((void CYFAR *)(CYREG_FASTCLK_IMO_CR), 0x52u);
 243:.\Generated_Source\PSoC5/cyfitter_cfg.c **** 	CY_SET_XTND_REG8((void CYFAR *)(CYREG_IMO_TR1), (CY_GET_XTND_REG8((void CYFAR *)CYREG_FLSHID_CUST_
 244:.\Generated_Source\PSoC5/cyfitter_cfg.c **** 
 245:.\Generated_Source\PSoC5/cyfitter_cfg.c **** 	/* Configure PLL based on settings from Clock DWR */
 246:.\Generated_Source\PSoC5/cyfitter_cfg.c **** 	CY_SET_XTND_REG16((void CYFAR *)(CYREG_FASTCLK_PLL_P), 0x0719u);
 247:.\Generated_Source\PSoC5/cyfitter_cfg.c **** 	CY_SET_XTND_REG16((void CYFAR *)(CYREG_FASTCLK_PLL_CFG0), 0x2251u);
 248:.\Generated_Source\PSoC5/cyfitter_cfg.c **** 	/* Wait up to 250us for the PLL to lock */
 249:.\Generated_Source\PSoC5/cyfitter_cfg.c **** 	pllLock = 0u;
 250:.\Generated_Source\PSoC5/cyfitter_cfg.c **** 	for (timeout = 250u / 10u; (timeout > 0u) && (pllLock != 0x03u); timeout--)
 251:.\Generated_Source\PSoC5/cyfitter_cfg.c **** 	{ 
 252:.\Generated_Source\PSoC5/cyfitter_cfg.c **** 		pllLock = 0x03u & ((uint8)((uint8)pllLock << 1) | ((CY_GET_XTND_REG8((void CYFAR *)CYREG_FASTCLK_
 253:.\Generated_Source\PSoC5/cyfitter_cfg.c **** 		CyDelayCycles(10u * 48u); /* Delay 10us based on 48MHz clock */
 254:.\Generated_Source\PSoC5/cyfitter_cfg.c **** 	}
 255:.\Generated_Source\PSoC5/cyfitter_cfg.c **** 	/* If we ran out of time the PLL didn't lock so go to the error function */
 256:.\Generated_Source\PSoC5/cyfitter_cfg.c **** 	if (timeout == 0u)
 257:.\Generated_Source\PSoC5/cyfitter_cfg.c **** 	{
 258:.\Generated_Source\PSoC5/cyfitter_cfg.c **** 		CyClockStartupError(CYCLOCKSTART_PLL_ERROR);
 259:.\Generated_Source\PSoC5/cyfitter_cfg.c **** 	}
 260:.\Generated_Source\PSoC5/cyfitter_cfg.c **** 
 261:.\Generated_Source\PSoC5/cyfitter_cfg.c **** 	/* Configure Bus/Master Clock based on settings from Clock DWR */
 262:.\Generated_Source\PSoC5/cyfitter_cfg.c **** 	CY_SET_XTND_REG16((void CYFAR *)(CYREG_CLKDIST_MSTR0), 0x0100u);
 263:.\Generated_Source\PSoC5/cyfitter_cfg.c **** 	CY_SET_XTND_REG8((void CYFAR *)(CYREG_CLKDIST_MSTR0), 0x07u);
 264:.\Generated_Source\PSoC5/cyfitter_cfg.c **** 	CY_SET_XTND_REG8((void CYFAR *)(CYREG_CLKDIST_BCFG0), 0x00u);
 265:.\Generated_Source\PSoC5/cyfitter_cfg.c **** 	CY_SET_XTND_REG8((void CYFAR *)(CYREG_CLKDIST_BCFG2), 0x48u);
 266:.\Generated_Source\PSoC5/cyfitter_cfg.c **** 	CY_SET_XTND_REG8((void CYFAR *)(CYREG_CLKDIST_MSTR0), 0x00u);
 267:.\Generated_Source\PSoC5/cyfitter_cfg.c **** 
 268:.\Generated_Source\PSoC5/cyfitter_cfg.c **** 	/* Configure USB Clock based on settings from Clock DWR */
 269:.\Generated_Source\PSoC5/cyfitter_cfg.c **** 	CY_SET_XTND_REG8((void CYFAR *)(CYREG_CLKDIST_UCFG), 0x00u);
 270:.\Generated_Source\PSoC5/cyfitter_cfg.c **** 	CY_SET_XTND_REG8((void CYFAR *)(CYREG_CLKDIST_LD), 0x02u);
 271:.\Generated_Source\PSoC5/cyfitter_cfg.c **** 	CY_SET_XTND_REG8((void CYFAR *)(CYREG_CLKDIST_DLY1), 0x04u);
 272:.\Generated_Source\PSoC5/cyfitter_cfg.c **** 
 273:.\Generated_Source\PSoC5/cyfitter_cfg.c **** 	CY_SET_XTND_REG8((void CYFAR *)(CYREG_PM_ACT_CFG2), ((CY_GET_XTND_REG8((void CYFAR *)CYREG_PM_ACT_
 274:.\Generated_Source\PSoC5/cyfitter_cfg.c **** 	CY_SET_XTND_REG8((void CYFAR *)(CYREG_PM_ACT_CFG1), ((CY_GET_XTND_REG8((void CYFAR *)CYREG_PM_ACT_
ARM GAS  C:\Users\214016~1\AppData\Local\Temp\ccgWWHze.s 			page 8


 275:.\Generated_Source\PSoC5/cyfitter_cfg.c **** 	CY_SET_XTND_REG8((void CYFAR *)(CYREG_PM_ACT_CFG0), ((CY_GET_XTND_REG8((void CYFAR *)CYREG_PM_ACT_
 276:.\Generated_Source\PSoC5/cyfitter_cfg.c **** }
 277:.\Generated_Source\PSoC5/cyfitter_cfg.c **** 
 278:.\Generated_Source\PSoC5/cyfitter_cfg.c **** 
 279:.\Generated_Source\PSoC5/cyfitter_cfg.c **** /* Analog API Functions */
 280:.\Generated_Source\PSoC5/cyfitter_cfg.c **** 
 281:.\Generated_Source\PSoC5/cyfitter_cfg.c **** 
 282:.\Generated_Source\PSoC5/cyfitter_cfg.c **** /*******************************************************************************
 283:.\Generated_Source\PSoC5/cyfitter_cfg.c **** * Function Name: AnalogSetDefault
 284:.\Generated_Source\PSoC5/cyfitter_cfg.c **** ********************************************************************************
 285:.\Generated_Source\PSoC5/cyfitter_cfg.c **** *
 286:.\Generated_Source\PSoC5/cyfitter_cfg.c **** * Summary:
 287:.\Generated_Source\PSoC5/cyfitter_cfg.c **** *  Sets up the analog portions of the chip to default values based on chip
 288:.\Generated_Source\PSoC5/cyfitter_cfg.c **** *  configuration options from the project.
 289:.\Generated_Source\PSoC5/cyfitter_cfg.c **** *
 290:.\Generated_Source\PSoC5/cyfitter_cfg.c **** * Parameters:
 291:.\Generated_Source\PSoC5/cyfitter_cfg.c **** *  void
 292:.\Generated_Source\PSoC5/cyfitter_cfg.c **** *
 293:.\Generated_Source\PSoC5/cyfitter_cfg.c **** * Return:
 294:.\Generated_Source\PSoC5/cyfitter_cfg.c **** *  void
 295:.\Generated_Source\PSoC5/cyfitter_cfg.c **** *
 296:.\Generated_Source\PSoC5/cyfitter_cfg.c **** *******************************************************************************/
 297:.\Generated_Source\PSoC5/cyfitter_cfg.c **** static void AnalogSetDefault(void);
 298:.\Generated_Source\PSoC5/cyfitter_cfg.c **** static void AnalogSetDefault(void)
 299:.\Generated_Source\PSoC5/cyfitter_cfg.c **** {
 123              		.loc 1 299 0
 124              		.cfi_startproc
 125              		@ args = 0, pretend = 0, frame = 0
 126              		@ frame_needed = 0, uses_anonymous_args = 0
 127 0000 2DE9F041 		push	{r4, r5, r6, r7, r8, lr}
 128              		.cfi_def_cfa_offset 24
 129              		.cfi_offset 4, -24
 130              		.cfi_offset 5, -20
 131              		.cfi_offset 6, -16
 132              		.cfi_offset 7, -12
 133              		.cfi_offset 8, -8
 134              		.cfi_offset 14, -4
 300:.\Generated_Source\PSoC5/cyfitter_cfg.c **** 	uint8 bg_xover_inl_trim = CY_GET_XTND_REG8((void CYFAR *)(CYREG_FLSHID_MFG_CFG_BG_XOVER_INL_TRIM +
 135              		.loc 1 300 0
 136 0004 454B     		ldr	r3, .L11
 137 0006 1B78     		ldrb	r3, [r3]	@ zero_extendqisi2
 138 0008 DBB2     		uxtb	r3, r3
 139              	.LVL12:
 301:.\Generated_Source\PSoC5/cyfitter_cfg.c **** 	uint8 cr4 = CY_GET_XTND_REG8((void CYFAR *)(CYREG_RESET_CR4));
 140              		.loc 1 301 0
 141 000a 454C     		ldr	r4, .L11+4
 142 000c 2278     		ldrb	r2, [r4]	@ zero_extendqisi2
 143 000e D2B2     		uxtb	r2, r2
 144              	.LVL13:
 302:.\Generated_Source\PSoC5/cyfitter_cfg.c **** 	uint8 cr5 = CY_GET_XTND_REG8((void CYFAR *)(CYREG_RESET_CR5));
 145              		.loc 1 302 0
 146 0010 444D     		ldr	r5, .L11+8
 147 0012 2978     		ldrb	r1, [r5]	@ zero_extendqisi2
 148 0014 C9B2     		uxtb	r1, r1
 149              	.LVL14:
 303:.\Generated_Source\PSoC5/cyfitter_cfg.c **** 	CY_SET_XTND_REG8((void CYFAR *)(CYREG_BG_DFT0), (bg_xover_inl_trim & 0x07u));
 150              		.loc 1 303 0
ARM GAS  C:\Users\214016~1\AppData\Local\Temp\ccgWWHze.s 			page 9


 151 0016 03F00706 		and	r6, r3, #7
 152 001a 4348     		ldr	r0, .L11+12
 153 001c 0670     		strb	r6, [r0]
 304:.\Generated_Source\PSoC5/cyfitter_cfg.c **** 	CY_SET_XTND_REG8((void CYFAR *)(CYREG_BG_DFT1), ((bg_xover_inl_trim >> 4) & 0x0Fu));
 154              		.loc 1 304 0
 155 001e 1B09     		lsrs	r3, r3, #4
 156              	.LVL15:
 157 0020 0130     		adds	r0, r0, #1
 158 0022 0370     		strb	r3, [r0]
 305:.\Generated_Source\PSoC5/cyfitter_cfg.c **** 	/* Disable PRES while setting up SAR voltage reference */
 306:.\Generated_Source\PSoC5/cyfitter_cfg.c **** 	CY_SET_XTND_REG8((void CYFAR *)(CYREG_RESET_CR4), (cr4 | 0x03u));
 159              		.loc 1 306 0
 160 0024 42F00303 		orr	r3, r2, #3
 161 0028 2370     		strb	r3, [r4]
 307:.\Generated_Source\PSoC5/cyfitter_cfg.c **** 	CY_SET_XTND_REG8((void CYFAR *)(CYREG_RESET_CR5), (cr5 | 0x03u));
 162              		.loc 1 307 0
 163 002a 41F00303 		orr	r3, r1, #3
 164 002e 2B70     		strb	r3, [r5]
 308:.\Generated_Source\PSoC5/cyfitter_cfg.c **** 	CY_SET_XTND_REG16((void CYFAR *)CYREG_PRT0_AMUX, 0x8210u);
 165              		.loc 1 308 0
 166 0030 48F21020 		movw	r0, #33296
 167 0034 3D4B     		ldr	r3, .L11+16
 168 0036 1880     		strh	r0, [r3]	@ movhi
 309:.\Generated_Source\PSoC5/cyfitter_cfg.c **** 	CY_SET_XTND_REG8((void CYFAR *)CYREG_PRT1_AG, 0xB4u);
 169              		.loc 1 309 0
 170 0038 B420     		movs	r0, #180
 171 003a 1133     		adds	r3, r3, #17
 172 003c 1870     		strb	r0, [r3]
 310:.\Generated_Source\PSoC5/cyfitter_cfg.c **** 	CY_SET_XTND_REG8((void CYFAR *)CYREG_PRT2_AG, 0x29u);
 173              		.loc 1 310 0
 174 003e 2920     		movs	r0, #41
 175 0040 1033     		adds	r3, r3, #16
 176 0042 1870     		strb	r0, [r3]
 311:.\Generated_Source\PSoC5/cyfitter_cfg.c **** 	CY_SET_XTND_REG8((void CYFAR *)CYREG_PRT3_AG, 0x41u);
 177              		.loc 1 311 0
 178 0044 4120     		movs	r0, #65
 179 0046 1033     		adds	r3, r3, #16
 180 0048 1870     		strb	r0, [r3]
 312:.\Generated_Source\PSoC5/cyfitter_cfg.c **** 	CY_SET_XTND_REG8((void CYFAR *)CYREG_PRT15_AG, 0x20u);
 181              		.loc 1 312 0
 182 004a 2023     		movs	r3, #32
 183 004c 3848     		ldr	r0, .L11+20
 184 004e 0370     		strb	r3, [r0]
 313:.\Generated_Source\PSoC5/cyfitter_cfg.c **** 	CY_SET_XTND_REG8((void CYFAR *)CYREG_BG_CR0, 0x0Cu);
 185              		.loc 1 313 0
 186 0050 0C26     		movs	r6, #12
 187 0052 00F26F60 		addw	r0, r0, #1647
 188 0056 0670     		strb	r6, [r0]
 314:.\Generated_Source\PSoC5/cyfitter_cfg.c **** 	CY_SET_XTND_REG8((void CYFAR *)CYREG_SAR1_CSR1, 0x40u);
 189              		.loc 1 314 0
 190 0058 4027     		movs	r7, #64
 191 005a 9D30     		adds	r0, r0, #157
 192 005c 0770     		strb	r7, [r0]
 315:.\Generated_Source\PSoC5/cyfitter_cfg.c **** 	CY_SET_XTND_REG8((void CYFAR *)CYREG_SAR1_CSR3, 0x40u);
 193              		.loc 1 315 0
 194 005e 0230     		adds	r0, r0, #2
 195 0060 0770     		strb	r7, [r0]
ARM GAS  C:\Users\214016~1\AppData\Local\Temp\ccgWWHze.s 			page 10


 316:.\Generated_Source\PSoC5/cyfitter_cfg.c **** 	CY_SET_XTND_REG8((void CYFAR *)CYREG_SC0_SW0, 0x11u);
 196              		.loc 1 316 0
 197 0062 1126     		movs	r6, #17
 198 0064 F530     		adds	r0, r0, #245
 199 0066 0670     		strb	r6, [r0]
 317:.\Generated_Source\PSoC5/cyfitter_cfg.c **** 	CY_SET_XTND_REG8((void CYFAR *)CYREG_SC2_SW0, 0x20u);
 200              		.loc 1 317 0
 201 0068 2030     		adds	r0, r0, #32
 202 006a 0370     		strb	r3, [r0]
 318:.\Generated_Source\PSoC5/cyfitter_cfg.c **** 	CY_SET_XTND_REG8((void CYFAR *)CYREG_SC2_SW2, 0x04u);
 203              		.loc 1 318 0
 204 006c 0420     		movs	r0, #4
 205 006e 314E     		ldr	r6, .L11+24
 206 0070 3070     		strb	r0, [r6]
 319:.\Generated_Source\PSoC5/cyfitter_cfg.c **** 	CY_SET_XTND_REG8((void CYFAR *)CYREG_DAC0_SW4, 0x01u);
 207              		.loc 1 319 0
 208 0072 4FF0010E 		mov	lr, #1
 209 0076 6236     		adds	r6, r6, #98
 210 0078 86F800E0 		strb	lr, [r6]
 320:.\Generated_Source\PSoC5/cyfitter_cfg.c **** 	CY_SET_XTND_REG8((void CYFAR *)CYREG_DAC1_SW3, 0x10u);
 211              		.loc 1 320 0
 212 007c 4FF0100E 		mov	lr, #16
 213 0080 0736     		adds	r6, r6, #7
 214 0082 86F800E0 		strb	lr, [r6]
 321:.\Generated_Source\PSoC5/cyfitter_cfg.c **** 	CY_SET_XTND_REG8((void CYFAR *)CYREG_DAC2_SW3, 0x80u);
 215              		.loc 1 321 0
 216 0086 8026     		movs	r6, #128
 217 0088 DFF8C8C0 		ldr	ip, .L11+56
 218 008c 8CF80060 		strb	r6, [ip]
 322:.\Generated_Source\PSoC5/cyfitter_cfg.c **** 	CY_SET_XTND_REG8((void CYFAR *)CYREG_DAC3_SW3, 0x80u);
 219              		.loc 1 322 0
 220 0090 0CF1080C 		add	ip, ip, #8
 221 0094 8CF80060 		strb	r6, [ip]
 323:.\Generated_Source\PSoC5/cyfitter_cfg.c **** 	CY_SET_XTND_REG8((void CYFAR *)CYREG_DAC3_SW4, 0x20u);
 222              		.loc 1 323 0
 223 0098 274E     		ldr	r6, .L11+28
 224 009a 3370     		strb	r3, [r6]
 324:.\Generated_Source\PSoC5/cyfitter_cfg.c **** 	CY_SET_XTND_REG8((void CYFAR *)CYREG_CMP0_SW2, 0x02u);
 225              		.loc 1 324 0
 226 009c 0226     		movs	r6, #2
 227 009e 0CF1270C 		add	ip, ip, #39
 228 00a2 8CF80060 		strb	r6, [ip]
 325:.\Generated_Source\PSoC5/cyfitter_cfg.c **** 	CY_SET_XTND_REG8((void CYFAR *)CYREG_CMP0_SW4, 0x04u);
 229              		.loc 1 325 0
 230 00a6 0CF1020C 		add	ip, ip, #2
 231 00aa 8CF80000 		strb	r0, [ip]
 326:.\Generated_Source\PSoC5/cyfitter_cfg.c **** 	CY_SET_XTND_REG8((void CYFAR *)CYREG_CMP1_SW0, 0x08u);
 232              		.loc 1 326 0
 233 00ae 4FF0080C 		mov	ip, #8
 234 00b2 DFF8A480 		ldr	r8, .L11+60
 235 00b6 88F800C0 		strb	ip, [r8]
 327:.\Generated_Source\PSoC5/cyfitter_cfg.c **** 	CY_SET_XTND_REG8((void CYFAR *)CYREG_CMP1_SW4, 0x40u);
 236              		.loc 1 327 0
 237 00ba 08F10408 		add	r8, r8, #4
 238 00be 88F80070 		strb	r7, [r8]
 328:.\Generated_Source\PSoC5/cyfitter_cfg.c **** 	CY_SET_XTND_REG8((void CYFAR *)CYREG_CMP2_SW2, 0x02u);
 239              		.loc 1 328 0
ARM GAS  C:\Users\214016~1\AppData\Local\Temp\ccgWWHze.s 			page 11


 240 00c2 1E4F     		ldr	r7, .L11+32
 241 00c4 3E70     		strb	r6, [r7]
 329:.\Generated_Source\PSoC5/cyfitter_cfg.c **** 	CY_SET_XTND_REG8((void CYFAR *)CYREG_CMP2_SW4, 0x08u);
 242              		.loc 1 329 0
 243 00c6 0237     		adds	r7, r7, #2
 244 00c8 87F800C0 		strb	ip, [r7]
 330:.\Generated_Source\PSoC5/cyfitter_cfg.c **** 	CY_SET_XTND_REG8((void CYFAR *)CYREG_CMP3_SW0, 0x10u);
 245              		.loc 1 330 0
 246 00cc 0437     		adds	r7, r7, #4
 247 00ce 87F800E0 		strb	lr, [r7]
 331:.\Generated_Source\PSoC5/cyfitter_cfg.c **** 	CY_SET_XTND_REG8((void CYFAR *)CYREG_CMP3_SW6, 0x04u);
 248              		.loc 1 331 0
 249 00d2 0637     		adds	r7, r7, #6
 250 00d4 3870     		strb	r0, [r7]
 332:.\Generated_Source\PSoC5/cyfitter_cfg.c **** 	CY_SET_XTND_REG8((void CYFAR *)CYREG_DSM0_SW0, 0x04u);
 251              		.loc 1 332 0
 252 00d6 2237     		adds	r7, r7, #34
 253 00d8 3870     		strb	r0, [r7]
 333:.\Generated_Source\PSoC5/cyfitter_cfg.c **** 	CY_SET_XTND_REG8((void CYFAR *)CYREG_DSM0_SW6, 0x02u);
 254              		.loc 1 333 0
 255 00da 1948     		ldr	r0, .L11+36
 256 00dc 0670     		strb	r6, [r0]
 334:.\Generated_Source\PSoC5/cyfitter_cfg.c **** 	CY_SET_XTND_REG8((void CYFAR *)CYREG_SAR1_SW0, 0x03u);
 257              		.loc 1 334 0
 258 00de 0326     		movs	r6, #3
 259 00e0 2230     		adds	r0, r0, #34
 260 00e2 0670     		strb	r6, [r0]
 335:.\Generated_Source\PSoC5/cyfitter_cfg.c **** 	CY_SET_XTND_REG8((void CYFAR *)CYREG_SAR1_SW3, 0x20u);
 261              		.loc 1 335 0
 262 00e4 0330     		adds	r0, r0, #3
 263 00e6 0370     		strb	r3, [r0]
 336:.\Generated_Source\PSoC5/cyfitter_cfg.c **** 	CY_SET_XTND_REG32((void CYFAR *)CYREG_OPAMP0_MX, 0x01020101u);
 264              		.loc 1 336 0
 265 00e8 1648     		ldr	r0, .L11+40
 266 00ea 174B     		ldr	r3, .L11+44
 267 00ec 1860     		str	r0, [r3]
 337:.\Generated_Source\PSoC5/cyfitter_cfg.c **** 	CY_SET_XTND_REG8((void CYFAR *)CYREG_OPAMP2_SW, 0x05u);
 268              		.loc 1 337 0
 269 00ee 0520     		movs	r0, #5
 270 00f0 0533     		adds	r3, r3, #5
 271 00f2 1870     		strb	r0, [r3]
 338:.\Generated_Source\PSoC5/cyfitter_cfg.c **** 	CY_SET_XTND_REG16((void CYFAR *)CYREG_OPAMP3_MX, 0x0104u);
 272              		.loc 1 338 0
 273 00f4 4FF48273 		mov	r3, #260
 274 00f8 1448     		ldr	r0, .L11+48
 275 00fa 0380     		strh	r3, [r0]	@ movhi
 339:.\Generated_Source\PSoC5/cyfitter_cfg.c **** 	CY_SET_XTND_REG8((void CYFAR *)CYREG_LCDDAC_SW1, 0x06u);
 276              		.loc 1 339 0
 277 00fc 0626     		movs	r6, #6
 278 00fe 0B30     		adds	r0, r0, #11
 279 0100 0670     		strb	r6, [r0]
 340:.\Generated_Source\PSoC5/cyfitter_cfg.c **** 	CY_SET_XTND_REG8((void CYFAR *)CYREG_BUS_SW0, 0x86u);
 280              		.loc 1 340 0
 281 0102 8626     		movs	r6, #134
 282 0104 0730     		adds	r0, r0, #7
 283 0106 0670     		strb	r6, [r0]
 341:.\Generated_Source\PSoC5/cyfitter_cfg.c **** 	CY_SET_XTND_REG16((void CYFAR *)CYREG_BUS_SW2, 0x0104u);
ARM GAS  C:\Users\214016~1\AppData\Local\Temp\ccgWWHze.s 			page 12


 284              		.loc 1 341 0
 285 0108 0230     		adds	r0, r0, #2
 286 010a 0380     		strh	r3, [r0]	@ movhi
 342:.\Generated_Source\PSoC5/cyfitter_cfg.c **** 	CY_SET_XTND_REG8((void CYFAR *)(CYREG_RESET_CR5), (cr5));
 287              		.loc 1 342 0
 288 010c 2970     		strb	r1, [r5]
 343:.\Generated_Source\PSoC5/cyfitter_cfg.c **** 	CY_SET_XTND_REG8((void CYFAR *)(CYREG_RESET_CR4), (cr4));
 289              		.loc 1 343 0
 290 010e 2270     		strb	r2, [r4]
 344:.\Generated_Source\PSoC5/cyfitter_cfg.c **** 	CY_SET_XTND_REG8((void CYFAR *)CYREG_PUMP_CR0, 0x44u);
 291              		.loc 1 344 0
 292 0110 4422     		movs	r2, #68
 293              	.LVL16:
 294 0112 0F4B     		ldr	r3, .L11+52
 295 0114 1A70     		strb	r2, [r3]
 296              	.LVL17:
 297 0116 BDE8F081 		pop	{r4, r5, r6, r7, r8, pc}
 298              	.L12:
 299 011a 00BF     		.align	2
 300              	.L11:
 301 011c CF010049 		.word	1224737231
 302 0120 F8460040 		.word	1073759992
 303 0124 F9460040 		.word	1073759993
 304 0128 6E580040 		.word	1073764462
 305 012c 0C510040 		.word	1073762572
 306 0130 FD510040 		.word	1073762813
 307 0134 225A0040 		.word	1073764898
 308 0138 9C5A0040 		.word	1073765020
 309 013c D25A0040 		.word	1073765074
 310 0140 065B0040 		.word	1073765126
 311 0144 01010201 		.word	16908545
 312 0148 405B0040 		.word	1073765184
 313 014c 465B0040 		.word	1073765190
 314 0150 76580040 		.word	1073764470
 315 0154 935A0040 		.word	1073765011
 316 0158 C85A0040 		.word	1073765064
 317              		.cfi_endproc
 318              	.LFE6:
 319              		.size	AnalogSetDefault, .-AnalogSetDefault
 320              		.section	.text.CYMEMZERO,"ax",%progbits
 321              		.align	2
 322              		.thumb
 323              		.thumb_func
 324              		.type	CYMEMZERO, %function
 325              	CYMEMZERO:
 326              	.LFB0:
  63:.\Generated_Source\PSoC5/cyfitter_cfg.c **** 	(void)memset(s, 0, n);
 327              		.loc 1 63 0
 328              		.cfi_startproc
 329              		@ args = 0, pretend = 0, frame = 0
 330              		@ frame_needed = 0, uses_anonymous_args = 0
 331              	.LVL18:
 332 0000 08B5     		push	{r3, lr}
 333              		.cfi_def_cfa_offset 8
 334              		.cfi_offset 3, -8
 335              		.cfi_offset 14, -4
 336 0002 0A46     		mov	r2, r1
ARM GAS  C:\Users\214016~1\AppData\Local\Temp\ccgWWHze.s 			page 13


  64:.\Generated_Source\PSoC5/cyfitter_cfg.c **** }
 337              		.loc 1 64 0
 338 0004 0021     		movs	r1, #0
 339              	.LVL19:
 340 0006 FFF7FEFF 		bl	memset
 341              	.LVL20:
 342 000a 08BD     		pop	{r3, pc}
 343              		.cfi_endproc
 344              	.LFE0:
 345              		.size	CYMEMZERO, .-CYMEMZERO
 346              		.section	.text.CYCONFIGCPY,"ax",%progbits
 347              		.align	2
 348              		.thumb
 349              		.thumb_func
 350              		.type	CYCONFIGCPY, %function
 351              	CYCONFIGCPY:
 352              	.LFB1:
  70:.\Generated_Source\PSoC5/cyfitter_cfg.c **** 	(void)memcpy(dest, src, n);
 353              		.loc 1 70 0
 354              		.cfi_startproc
 355              		@ args = 0, pretend = 0, frame = 0
 356              		@ frame_needed = 0, uses_anonymous_args = 0
 357              	.LVL21:
 358 0000 08B5     		push	{r3, lr}
 359              		.cfi_def_cfa_offset 8
 360              		.cfi_offset 3, -8
 361              		.cfi_offset 14, -4
  71:.\Generated_Source\PSoC5/cyfitter_cfg.c **** }
 362              		.loc 1 71 0
 363 0002 FFF7FEFF 		bl	memcpy
 364              	.LVL22:
 365 0006 08BD     		pop	{r3, pc}
 366              		.cfi_endproc
 367              	.LFE1:
 368              		.size	CYCONFIGCPY, .-CYCONFIGCPY
 369              		.section	.text.ClockSetup,"ax",%progbits
 370              		.align	2
 371              		.thumb
 372              		.thumb_func
 373              		.type	ClockSetup, %function
 374              	ClockSetup:
 375              	.LFB5:
 216:.\Generated_Source\PSoC5/cyfitter_cfg.c **** 	uint32 timeout;
 376              		.loc 1 216 0
 377              		.cfi_startproc
 378              		@ args = 0, pretend = 0, frame = 0
 379              		@ frame_needed = 0, uses_anonymous_args = 0
 380 0000 38B5     		push	{r3, r4, r5, lr}
 381              		.cfi_def_cfa_offset 16
 382              		.cfi_offset 3, -16
 383              		.cfi_offset 4, -12
 384              		.cfi_offset 5, -8
 385              		.cfi_offset 14, -4
 222:.\Generated_Source\PSoC5/cyfitter_cfg.c **** 	CY_SET_XTND_REG8((void CYFAR *)(CYREG_CLKDIST_DCFG0_CFG0 + 0x2u), 0x18u);
 386              		.loc 1 222 0
 387 0002 40F2FF32 		movw	r2, #1023
 388 0006 394B     		ldr	r3, .L23
ARM GAS  C:\Users\214016~1\AppData\Local\Temp\ccgWWHze.s 			page 14


 389 0008 1A80     		strh	r2, [r3]	@ movhi
 223:.\Generated_Source\PSoC5/cyfitter_cfg.c **** 	CY_SET_XTND_REG16((void CYFAR *)(CYREG_CLKDIST_DCFG1_CFG0), 0x0000u);
 390              		.loc 1 223 0
 391 000a 1823     		movs	r3, #24
 392 000c 384A     		ldr	r2, .L23+4
 393 000e 1370     		strb	r3, [r2]
 224:.\Generated_Source\PSoC5/cyfitter_cfg.c **** 	CY_SET_XTND_REG8((void CYFAR *)(CYREG_CLKDIST_DCFG1_CFG0 + 0x2u), 0x50u);
 394              		.loc 1 224 0
 395 0010 0024     		movs	r4, #0
 396 0012 0232     		adds	r2, r2, #2
 397 0014 1480     		strh	r4, [r2]	@ movhi
 225:.\Generated_Source\PSoC5/cyfitter_cfg.c **** 	CY_SET_XTND_REG16((void CYFAR *)(CYREG_CLKDIST_DCFG2_CFG0), 0x0000u);
 398              		.loc 1 225 0
 399 0016 5021     		movs	r1, #80
 400 0018 0232     		adds	r2, r2, #2
 401 001a 1170     		strb	r1, [r2]
 226:.\Generated_Source\PSoC5/cyfitter_cfg.c **** 	CY_SET_XTND_REG8((void CYFAR *)(CYREG_CLKDIST_DCFG2_CFG0 + 0x2u), 0x19u);
 402              		.loc 1 226 0
 403 001c 0232     		adds	r2, r2, #2
 404 001e 1480     		strh	r4, [r2]	@ movhi
 227:.\Generated_Source\PSoC5/cyfitter_cfg.c **** 	CY_SET_XTND_REG16((void CYFAR *)(CYREG_CLKDIST_DCFG3_CFG0), 0x002Eu);
 405              		.loc 1 227 0
 406 0020 1925     		movs	r5, #25
 407 0022 0232     		adds	r2, r2, #2
 408 0024 1570     		strb	r5, [r2]
 228:.\Generated_Source\PSoC5/cyfitter_cfg.c **** 	CY_SET_XTND_REG8((void CYFAR *)(CYREG_CLKDIST_DCFG3_CFG0 + 0x2u), 0x18u);
 409              		.loc 1 228 0
 410 0026 2E21     		movs	r1, #46
 411 0028 0232     		adds	r2, r2, #2
 412 002a 1180     		strh	r1, [r2]	@ movhi
 229:.\Generated_Source\PSoC5/cyfitter_cfg.c **** 	CY_SET_XTND_REG16((void CYFAR *)(CYREG_CLKDIST_DCFG4_CFG0), 0x0257u);
 413              		.loc 1 229 0
 414 002c 0232     		adds	r2, r2, #2
 415 002e 1370     		strb	r3, [r2]
 230:.\Generated_Source\PSoC5/cyfitter_cfg.c **** 	CY_SET_XTND_REG8((void CYFAR *)(CYREG_CLKDIST_DCFG4_CFG0 + 0x2u), 0x18u);
 416              		.loc 1 230 0
 417 0030 40F25722 		movw	r2, #599
 418 0034 2F49     		ldr	r1, .L23+8
 419 0036 0A80     		strh	r2, [r1]	@ movhi
 231:.\Generated_Source\PSoC5/cyfitter_cfg.c **** 	CY_SET_XTND_REG16((void CYFAR *)(CYREG_CLKDIST_DCFG5_CFG0), 0x0257u);
 420              		.loc 1 231 0
 421 0038 0231     		adds	r1, r1, #2
 422 003a 0B70     		strb	r3, [r1]
 232:.\Generated_Source\PSoC5/cyfitter_cfg.c **** 	CY_SET_XTND_REG8((void CYFAR *)(CYREG_CLKDIST_DCFG5_CFG0 + 0x2u), 0x18u);
 423              		.loc 1 232 0
 424 003c 0231     		adds	r1, r1, #2
 425 003e 0A80     		strh	r2, [r1]	@ movhi
 233:.\Generated_Source\PSoC5/cyfitter_cfg.c **** 
 426              		.loc 1 233 0
 427 0040 2D4A     		ldr	r2, .L23+12
 428 0042 1370     		strb	r3, [r2]
 236:.\Generated_Source\PSoC5/cyfitter_cfg.c **** 
 429              		.loc 1 236 0
 430 0044 2D48     		ldr	r0, .L23+16
 431 0046 2E49     		ldr	r1, .L23+20
 432 0048 0422     		movs	r2, #4
 433 004a FFF7FEFF 		bl	CYCONFIGCPY
ARM GAS  C:\Users\214016~1\AppData\Local\Temp\ccgWWHze.s 			page 15


 434              	.LVL23:
 239:.\Generated_Source\PSoC5/cyfitter_cfg.c **** 
 435              		.loc 1 239 0
 436 004e 0622     		movs	r2, #6
 437 0050 2C4B     		ldr	r3, .L23+24
 438 0052 1A70     		strb	r2, [r3]
 242:.\Generated_Source\PSoC5/cyfitter_cfg.c **** 	CY_SET_XTND_REG8((void CYFAR *)(CYREG_IMO_TR1), (CY_GET_XTND_REG8((void CYFAR *)CYREG_FLSHID_CUST_
 439              		.loc 1 242 0
 440 0054 5222     		movs	r2, #82
 441 0056 A3F58073 		sub	r3, r3, #256
 442 005a 1A70     		strb	r2, [r3]
 243:.\Generated_Source\PSoC5/cyfitter_cfg.c **** 
 443              		.loc 1 243 0
 444 005c 2A4B     		ldr	r3, .L23+28
 445 005e 1B78     		ldrb	r3, [r3]	@ zero_extendqisi2
 446 0060 DBB2     		uxtb	r3, r3
 447 0062 2A4A     		ldr	r2, .L23+32
 448 0064 1370     		strb	r3, [r2]
 246:.\Generated_Source\PSoC5/cyfitter_cfg.c **** 	CY_SET_XTND_REG16((void CYFAR *)(CYREG_FASTCLK_PLL_CFG0), 0x2251u);
 449              		.loc 1 246 0
 450 0066 40F21972 		movw	r2, #1817
 451 006a 294B     		ldr	r3, .L23+36
 452 006c 1A80     		strh	r2, [r3]	@ movhi
 247:.\Generated_Source\PSoC5/cyfitter_cfg.c **** 	/* Wait up to 250us for the PLL to lock */
 453              		.loc 1 247 0
 454 006e 42F25122 		movw	r2, #8785
 455 0072 023B     		subs	r3, r3, #2
 456 0074 1A80     		strh	r2, [r3]	@ movhi
 457              	.LVL24:
 250:.\Generated_Source\PSoC5/cyfitter_cfg.c **** 	{ 
 458              		.loc 1 250 0
 459 0076 0CE0     		b	.L18
 460              	.LVL25:
 461              	.L20:
 252:.\Generated_Source\PSoC5/cyfitter_cfg.c **** 		CyDelayCycles(10u * 48u); /* Delay 10us based on 48MHz clock */
 462              		.loc 1 252 0 discriminator 4
 463 0078 264B     		ldr	r3, .L23+40
 464 007a 1B78     		ldrb	r3, [r3]	@ zero_extendqisi2
 465 007c 03F00103 		and	r3, r3, #1
 466 0080 43EA4404 		orr	r4, r3, r4, lsl #1
 467              	.LVL26:
 468 0084 04F00304 		and	r4, r4, #3
 469              	.LVL27:
 253:.\Generated_Source\PSoC5/cyfitter_cfg.c **** 	}
 470              		.loc 1 253 0 discriminator 4
 471 0088 4FF4F070 		mov	r0, #480
 472 008c FFF7FEFF 		bl	CyDelayCycles
 473              	.LVL28:
 250:.\Generated_Source\PSoC5/cyfitter_cfg.c **** 	{ 
 474              		.loc 1 250 0 discriminator 4
 475 0090 013D     		subs	r5, r5, #1
 476              	.LVL29:
 477              	.L18:
 250:.\Generated_Source\PSoC5/cyfitter_cfg.c **** 	{ 
 478              		.loc 1 250 0 is_stmt 0 discriminator 1
 479 0092 0DB1     		cbz	r5, .L19
 250:.\Generated_Source\PSoC5/cyfitter_cfg.c **** 	{ 
ARM GAS  C:\Users\214016~1\AppData\Local\Temp\ccgWWHze.s 			page 16


 480              		.loc 1 250 0 discriminator 3
 481 0094 032C     		cmp	r4, #3
 482 0096 EFD1     		bne	.L20
 483              	.L19:
 256:.\Generated_Source\PSoC5/cyfitter_cfg.c **** 	{
 484              		.loc 1 256 0 is_stmt 1
 485 0098 15B9     		cbnz	r5, .L21
 258:.\Generated_Source\PSoC5/cyfitter_cfg.c **** 	}
 486              		.loc 1 258 0
 487 009a 0320     		movs	r0, #3
 488 009c FFF7FEFF 		bl	CyClockStartupError
 489              	.LVL30:
 490              	.L21:
 262:.\Generated_Source\PSoC5/cyfitter_cfg.c **** 	CY_SET_XTND_REG8((void CYFAR *)(CYREG_CLKDIST_MSTR0), 0x07u);
 491              		.loc 1 262 0
 492 00a0 1D4A     		ldr	r2, .L23+44
 493 00a2 4FF48073 		mov	r3, #256
 494 00a6 1380     		strh	r3, [r2]	@ movhi
 263:.\Generated_Source\PSoC5/cyfitter_cfg.c **** 	CY_SET_XTND_REG8((void CYFAR *)(CYREG_CLKDIST_BCFG0), 0x00u);
 495              		.loc 1 263 0
 496 00a8 0723     		movs	r3, #7
 497 00aa 1370     		strb	r3, [r2]
 264:.\Generated_Source\PSoC5/cyfitter_cfg.c **** 	CY_SET_XTND_REG8((void CYFAR *)(CYREG_CLKDIST_BCFG2), 0x48u);
 498              		.loc 1 264 0
 499 00ac 0023     		movs	r3, #0
 500 00ae 1B49     		ldr	r1, .L23+48
 501 00b0 0B70     		strb	r3, [r1]
 265:.\Generated_Source\PSoC5/cyfitter_cfg.c **** 	CY_SET_XTND_REG8((void CYFAR *)(CYREG_CLKDIST_MSTR0), 0x00u);
 502              		.loc 1 265 0
 503 00b2 4820     		movs	r0, #72
 504 00b4 0231     		adds	r1, r1, #2
 505 00b6 0870     		strb	r0, [r1]
 266:.\Generated_Source\PSoC5/cyfitter_cfg.c **** 
 506              		.loc 1 266 0
 507 00b8 1370     		strb	r3, [r2]
 269:.\Generated_Source\PSoC5/cyfitter_cfg.c **** 	CY_SET_XTND_REG8((void CYFAR *)(CYREG_CLKDIST_LD), 0x02u);
 508              		.loc 1 269 0
 509 00ba 0532     		adds	r2, r2, #5
 510 00bc 1370     		strb	r3, [r2]
 270:.\Generated_Source\PSoC5/cyfitter_cfg.c **** 	CY_SET_XTND_REG8((void CYFAR *)(CYREG_CLKDIST_DLY1), 0x04u);
 511              		.loc 1 270 0
 512 00be 0222     		movs	r2, #2
 513 00c0 174B     		ldr	r3, .L23+52
 514 00c2 1A70     		strb	r2, [r3]
 271:.\Generated_Source\PSoC5/cyfitter_cfg.c **** 
 515              		.loc 1 271 0
 516 00c4 0422     		movs	r2, #4
 517 00c6 0A33     		adds	r3, r3, #10
 518 00c8 1A70     		strb	r2, [r3]
 273:.\Generated_Source\PSoC5/cyfitter_cfg.c **** 	CY_SET_XTND_REG8((void CYFAR *)(CYREG_PM_ACT_CFG1), ((CY_GET_XTND_REG8((void CYFAR *)CYREG_PM_ACT_
 519              		.loc 1 273 0
 520 00ca 164A     		ldr	r2, .L23+56
 521 00cc 1378     		ldrb	r3, [r2]	@ zero_extendqisi2
 522 00ce 43F03F03 		orr	r3, r3, #63
 523 00d2 1370     		strb	r3, [r2]
 274:.\Generated_Source\PSoC5/cyfitter_cfg.c **** 	CY_SET_XTND_REG8((void CYFAR *)(CYREG_PM_ACT_CFG0), ((CY_GET_XTND_REG8((void CYFAR *)CYREG_PM_ACT_
 524              		.loc 1 274 0
ARM GAS  C:\Users\214016~1\AppData\Local\Temp\ccgWWHze.s 			page 17


 525 00d4 013A     		subs	r2, r2, #1
 526 00d6 1378     		ldrb	r3, [r2]	@ zero_extendqisi2
 527 00d8 43F00103 		orr	r3, r3, #1
 528 00dc 1370     		strb	r3, [r2]
 275:.\Generated_Source\PSoC5/cyfitter_cfg.c **** }
 529              		.loc 1 275 0
 530 00de 013A     		subs	r2, r2, #1
 531 00e0 1378     		ldrb	r3, [r2]	@ zero_extendqisi2
 532 00e2 43F08003 		orr	r3, r3, #128
 533 00e6 1370     		strb	r3, [r2]
 534 00e8 38BD     		pop	{r3, r4, r5, pc}
 535              	.LVL31:
 536              	.L24:
 537 00ea 00BF     		.align	2
 538              	.L23:
 539 00ec 80400040 		.word	1073758336
 540 00f0 82400040 		.word	1073758338
 541 00f4 90400040 		.word	1073758352
 542 00f8 96400040 		.word	1073758358
 543 00fc 00410040 		.word	1073758464
 544 0100 940B0048 		.word	1207962516
 545 0104 00430040 		.word	1073758976
 546 0108 0F010049 		.word	1224737039
 547 010c A1460040 		.word	1073759905
 548 0110 22420040 		.word	1073758754
 549 0114 25420040 		.word	1073758757
 550 0118 04400040 		.word	1073758212
 551 011c 06400040 		.word	1073758214
 552 0120 01400040 		.word	1073758209
 553 0124 A2430040 		.word	1073759138
 554              		.cfi_endproc
 555              	.LFE5:
 556              		.size	ClockSetup, .-ClockSetup
 557              		.section	.text.SetAnalogRoutingPumps,"ax",%progbits
 558              		.align	2
 559              		.global	SetAnalogRoutingPumps
 560              		.thumb
 561              		.thumb_func
 562              		.type	SetAnalogRoutingPumps, %function
 563              	SetAnalogRoutingPumps:
 564              	.LFB7:
 345:.\Generated_Source\PSoC5/cyfitter_cfg.c **** }
 346:.\Generated_Source\PSoC5/cyfitter_cfg.c **** 
 347:.\Generated_Source\PSoC5/cyfitter_cfg.c **** 
 348:.\Generated_Source\PSoC5/cyfitter_cfg.c **** /*******************************************************************************
 349:.\Generated_Source\PSoC5/cyfitter_cfg.c **** * Function Name: SetAnalogRoutingPumps
 350:.\Generated_Source\PSoC5/cyfitter_cfg.c **** ********************************************************************************
 351:.\Generated_Source\PSoC5/cyfitter_cfg.c **** *
 352:.\Generated_Source\PSoC5/cyfitter_cfg.c **** * Summary:
 353:.\Generated_Source\PSoC5/cyfitter_cfg.c **** * Enables or disables the analog pumps feeding analog routing switches.
 354:.\Generated_Source\PSoC5/cyfitter_cfg.c **** * Intended to be called at startup, based on the Vdda system configuration;
 355:.\Generated_Source\PSoC5/cyfitter_cfg.c **** * may be called during operation when the user informs us that the Vdda voltage
 356:.\Generated_Source\PSoC5/cyfitter_cfg.c **** * crossed the pump threshold.
 357:.\Generated_Source\PSoC5/cyfitter_cfg.c **** *
 358:.\Generated_Source\PSoC5/cyfitter_cfg.c **** * Parameters:
 359:.\Generated_Source\PSoC5/cyfitter_cfg.c **** *  enabled - 1 to enable the pumps, 0 to disable the pumps
 360:.\Generated_Source\PSoC5/cyfitter_cfg.c **** *
ARM GAS  C:\Users\214016~1\AppData\Local\Temp\ccgWWHze.s 			page 18


 361:.\Generated_Source\PSoC5/cyfitter_cfg.c **** * Return:
 362:.\Generated_Source\PSoC5/cyfitter_cfg.c **** *  void
 363:.\Generated_Source\PSoC5/cyfitter_cfg.c **** *
 364:.\Generated_Source\PSoC5/cyfitter_cfg.c **** *******************************************************************************/
 365:.\Generated_Source\PSoC5/cyfitter_cfg.c **** void SetAnalogRoutingPumps(uint8 enabled)
 366:.\Generated_Source\PSoC5/cyfitter_cfg.c **** {
 565              		.loc 1 366 0
 566              		.cfi_startproc
 567              		@ args = 0, pretend = 0, frame = 0
 568              		@ frame_needed = 0, uses_anonymous_args = 0
 569              		@ link register save eliminated.
 570              	.LVL32:
 367:.\Generated_Source\PSoC5/cyfitter_cfg.c **** 	uint8 regValue = CY_GET_XTND_REG8((void CYFAR *)CYREG_PUMP_CR0);
 571              		.loc 1 367 0
 572 0000 054B     		ldr	r3, .L28
 573 0002 1B78     		ldrb	r3, [r3]	@ zero_extendqisi2
 574 0004 DBB2     		uxtb	r3, r3
 575              	.LVL33:
 368:.\Generated_Source\PSoC5/cyfitter_cfg.c **** 	if (enabled != 0u)
 576              		.loc 1 368 0
 577 0006 10B1     		cbz	r0, .L26
 369:.\Generated_Source\PSoC5/cyfitter_cfg.c **** 	{
 370:.\Generated_Source\PSoC5/cyfitter_cfg.c **** 		regValue |= 0x22u;
 578              		.loc 1 370 0
 579 0008 43F02203 		orr	r3, r3, #34
 580              	.LVL34:
 581 000c 01E0     		b	.L27
 582              	.L26:
 371:.\Generated_Source\PSoC5/cyfitter_cfg.c **** 	}
 372:.\Generated_Source\PSoC5/cyfitter_cfg.c **** 	else
 373:.\Generated_Source\PSoC5/cyfitter_cfg.c **** 	{
 374:.\Generated_Source\PSoC5/cyfitter_cfg.c **** 		regValue &= (uint8)~0x22u;
 583              		.loc 1 374 0
 584 000e 03F0DD03 		and	r3, r3, #221
 585              	.LVL35:
 586              	.L27:
 375:.\Generated_Source\PSoC5/cyfitter_cfg.c **** 	}
 376:.\Generated_Source\PSoC5/cyfitter_cfg.c **** 	CY_SET_XTND_REG8((void CYFAR *)CYREG_PUMP_CR0, regValue);
 587              		.loc 1 376 0
 588 0012 014A     		ldr	r2, .L28
 589 0014 1370     		strb	r3, [r2]
 590 0016 7047     		bx	lr
 591              	.L29:
 592              		.align	2
 593              	.L28:
 594 0018 76580040 		.word	1073764470
 595              		.cfi_endproc
 596              	.LFE7:
 597              		.size	SetAnalogRoutingPumps, .-SetAnalogRoutingPumps
 598              		.section	.text.cyfitter_cfg,"ax",%progbits
 599              		.align	2
 600              		.global	cyfitter_cfg
 601              		.thumb
 602              		.thumb_func
 603              		.type	cyfitter_cfg, %function
 604              	cyfitter_cfg:
 605              	.LFB8:
ARM GAS  C:\Users\214016~1\AppData\Local\Temp\ccgWWHze.s 			page 19


 377:.\Generated_Source\PSoC5/cyfitter_cfg.c **** }
 378:.\Generated_Source\PSoC5/cyfitter_cfg.c **** 
 379:.\Generated_Source\PSoC5/cyfitter_cfg.c **** #define CY_AMUX_UNUSED CYREG_BOOST_SR
 380:.\Generated_Source\PSoC5/cyfitter_cfg.c **** 
 381:.\Generated_Source\PSoC5/cyfitter_cfg.c **** 
 382:.\Generated_Source\PSoC5/cyfitter_cfg.c **** /*******************************************************************************
 383:.\Generated_Source\PSoC5/cyfitter_cfg.c **** * Function Name: cyfitter_cfg
 384:.\Generated_Source\PSoC5/cyfitter_cfg.c **** ********************************************************************************
 385:.\Generated_Source\PSoC5/cyfitter_cfg.c **** * Summary:
 386:.\Generated_Source\PSoC5/cyfitter_cfg.c **** *  This function is called by the start-up code for the selected device. It
 387:.\Generated_Source\PSoC5/cyfitter_cfg.c **** *  performs all of the necessary device configuration based on the design
 388:.\Generated_Source\PSoC5/cyfitter_cfg.c **** *  settings.  This includes settings from the Design Wide Resources (DWR) such
 389:.\Generated_Source\PSoC5/cyfitter_cfg.c **** *  as Clocks and Pins as well as any component configuration that is necessary.
 390:.\Generated_Source\PSoC5/cyfitter_cfg.c **** *
 391:.\Generated_Source\PSoC5/cyfitter_cfg.c **** * Parameters:  
 392:.\Generated_Source\PSoC5/cyfitter_cfg.c **** *   void
 393:.\Generated_Source\PSoC5/cyfitter_cfg.c **** *
 394:.\Generated_Source\PSoC5/cyfitter_cfg.c **** * Return:
 395:.\Generated_Source\PSoC5/cyfitter_cfg.c **** *   void
 396:.\Generated_Source\PSoC5/cyfitter_cfg.c **** *
 397:.\Generated_Source\PSoC5/cyfitter_cfg.c **** *******************************************************************************/
 398:.\Generated_Source\PSoC5/cyfitter_cfg.c **** 
 399:.\Generated_Source\PSoC5/cyfitter_cfg.c **** void cyfitter_cfg(void)
 400:.\Generated_Source\PSoC5/cyfitter_cfg.c **** {
 606              		.loc 1 400 0
 607              		.cfi_startproc
 608              		@ args = 0, pretend = 0, frame = 0
 609              		@ frame_needed = 0, uses_anonymous_args = 0
 610 0000 38B5     		push	{r3, r4, r5, lr}
 611              		.cfi_def_cfa_offset 16
 612              		.cfi_offset 3, -16
 613              		.cfi_offset 4, -12
 614              		.cfi_offset 5, -8
 615              		.cfi_offset 14, -4
 401:.\Generated_Source\PSoC5/cyfitter_cfg.c **** #ifdef CYGlobalIntDisable
 402:.\Generated_Source\PSoC5/cyfitter_cfg.c **** 	/* Disable interrupts by default. Let user enable if/when they want. */
 403:.\Generated_Source\PSoC5/cyfitter_cfg.c **** 	CYGlobalIntDisable
 616              		.loc 1 403 0
 617              	@ 403 ".\Generated_Source\PSoC5\cyfitter_cfg.c" 1
 618 0002 72B6     		CPSID   i
 619              	@ 0 "" 2
 404:.\Generated_Source\PSoC5/cyfitter_cfg.c **** #endif
 405:.\Generated_Source\PSoC5/cyfitter_cfg.c **** 
 406:.\Generated_Source\PSoC5/cyfitter_cfg.c **** 
 407:.\Generated_Source\PSoC5/cyfitter_cfg.c **** 	/* Set Flash Cycles based on max possible frequency in case a glitch occurs during ClockSetup(). *
 408:.\Generated_Source\PSoC5/cyfitter_cfg.c **** 	CY_SET_XTND_REG8((void CYFAR *)(CYREG_CACHE_CC_CTL), (((CYDEV_INSTRUCT_CACHE_ENABLED) != 0) ? 0x61
 620              		.loc 1 408 0
 621              		.thumb
 622 0004 6122     		movs	r2, #97
 623 0006 4C4B     		ldr	r3, .L36
 624 0008 1A70     		strb	r2, [r3]
 409:.\Generated_Source\PSoC5/cyfitter_cfg.c **** 	/* Setup clocks based on selections from Clock DWR */
 410:.\Generated_Source\PSoC5/cyfitter_cfg.c **** 	ClockSetup();
 625              		.loc 1 410 0
 626 000a FFF7FEFF 		bl	ClockSetup
 627              	.LVL36:
 411:.\Generated_Source\PSoC5/cyfitter_cfg.c **** 	/* Enable/Disable Debug functionality based on settings from System DWR */
ARM GAS  C:\Users\214016~1\AppData\Local\Temp\ccgWWHze.s 			page 20


 412:.\Generated_Source\PSoC5/cyfitter_cfg.c **** 	CY_SET_XTND_REG8((void CYFAR *)CYREG_MLOGIC_DEBUG, (CY_GET_XTND_REG8((void CYFAR *)CYREG_MLOGIC_DE
 628              		.loc 1 412 0
 629 000e 4B4A     		ldr	r2, .L36+4
 630 0010 1378     		ldrb	r3, [r2]	@ zero_extendqisi2
 631 0012 43F00403 		orr	r3, r3, #4
 632 0016 1370     		strb	r3, [r2]
 633              	.LVL37:
 634              	.LBB3:
 413:.\Generated_Source\PSoC5/cyfitter_cfg.c **** 
 414:.\Generated_Source\PSoC5/cyfitter_cfg.c **** 	{
 415:.\Generated_Source\PSoC5/cyfitter_cfg.c **** 
 416:.\Generated_Source\PSoC5/cyfitter_cfg.c **** 		CYPACKED typedef struct {
 417:.\Generated_Source\PSoC5/cyfitter_cfg.c **** 			void CYFAR *address;
 418:.\Generated_Source\PSoC5/cyfitter_cfg.c **** 			uint16 size;
 419:.\Generated_Source\PSoC5/cyfitter_cfg.c **** 		} CYPACKED_ATTR cfg_memset_t;
 420:.\Generated_Source\PSoC5/cyfitter_cfg.c **** 
 421:.\Generated_Source\PSoC5/cyfitter_cfg.c **** 
 422:.\Generated_Source\PSoC5/cyfitter_cfg.c **** 		CYPACKED typedef struct {
 423:.\Generated_Source\PSoC5/cyfitter_cfg.c **** 			void CYFAR *dest;
 424:.\Generated_Source\PSoC5/cyfitter_cfg.c **** 			const void CYFAR *src;
 425:.\Generated_Source\PSoC5/cyfitter_cfg.c **** 			uint16 size;
 426:.\Generated_Source\PSoC5/cyfitter_cfg.c **** 		} CYPACKED_ATTR cfg_memcpy_t;
 427:.\Generated_Source\PSoC5/cyfitter_cfg.c **** 
 428:.\Generated_Source\PSoC5/cyfitter_cfg.c **** 		static const cfg_memset_t CYCODE cfg_memset_list [] = {
 429:.\Generated_Source\PSoC5/cyfitter_cfg.c **** 			/* address, size */
 430:.\Generated_Source\PSoC5/cyfitter_cfg.c **** 			{(void CYFAR *)(CYREG_PRT4_DR), 48u},
 431:.\Generated_Source\PSoC5/cyfitter_cfg.c **** 			{(void CYFAR *)(CYDEV_UCFG_B0_P0_U0_BASE), 4096u},
 432:.\Generated_Source\PSoC5/cyfitter_cfg.c **** 			{(void CYFAR *)(CYDEV_UCFG_B1_P2_U0_BASE), 2048u},
 433:.\Generated_Source\PSoC5/cyfitter_cfg.c **** 			{(void CYFAR *)(CYDEV_UCFG_DSI0_BASE), 2560u},
 434:.\Generated_Source\PSoC5/cyfitter_cfg.c **** 			{(void CYFAR *)(CYDEV_UCFG_DSI12_BASE), 512u},
 435:.\Generated_Source\PSoC5/cyfitter_cfg.c **** 			{(void CYFAR *)(CYREG_BCTL1_MDCLK_EN), 16u},
 436:.\Generated_Source\PSoC5/cyfitter_cfg.c **** 		};
 437:.\Generated_Source\PSoC5/cyfitter_cfg.c **** 
 438:.\Generated_Source\PSoC5/cyfitter_cfg.c **** 		static const cfg_memcpy_t CYCODE cfg_memcpy_list [] = {
 439:.\Generated_Source\PSoC5/cyfitter_cfg.c **** 			/* dest, src, size */
 440:.\Generated_Source\PSoC5/cyfitter_cfg.c **** 			{(void CYFAR *)(CYREG_BCTL0_MDCLK_EN), BS_UCFG_BCTL0_VAL, 16u},
 441:.\Generated_Source\PSoC5/cyfitter_cfg.c **** 		};
 442:.\Generated_Source\PSoC5/cyfitter_cfg.c **** 
 443:.\Generated_Source\PSoC5/cyfitter_cfg.c **** 		uint8 CYDATA i;
 444:.\Generated_Source\PSoC5/cyfitter_cfg.c **** 
 445:.\Generated_Source\PSoC5/cyfitter_cfg.c **** 		/* Zero out critical memory blocks before beginning configuration */
 446:.\Generated_Source\PSoC5/cyfitter_cfg.c **** 		for (i = 0u; i < (sizeof(cfg_memset_list)/sizeof(cfg_memset_list[0])); i++)
 635              		.loc 1 446 0
 636 0018 0024     		movs	r4, #0
 637 001a 0CE0     		b	.L31
 638              	.LVL38:
 639              	.L32:
 640              	.LBB4:
 447:.\Generated_Source\PSoC5/cyfitter_cfg.c **** 		{
 448:.\Generated_Source\PSoC5/cyfitter_cfg.c **** 			const cfg_memset_t CYCODE * CYDATA ms = &cfg_memset_list[i];
 449:.\Generated_Source\PSoC5/cyfitter_cfg.c **** 			CYMEMZERO(ms->address, (size_t)(uint32)(ms->size));
 641              		.loc 1 449 0 discriminator 3
 642 001c 4849     		ldr	r1, .L36+8
 643 001e 6300     		lsls	r3, r4, #1
 644 0020 1A19     		adds	r2, r3, r4
 645 0022 5200     		lsls	r2, r2, #1
 646 0024 0A44     		add	r2, r2, r1
ARM GAS  C:\Users\214016~1\AppData\Local\Temp\ccgWWHze.s 			page 21


 647 0026 2344     		add	r3, r3, r4
 648 0028 5B00     		lsls	r3, r3, #1
 649 002a C858     		ldr	r0, [r1, r3]	@ unaligned
 650 002c 9188     		ldrh	r1, [r2, #4]
 651 002e FFF7FEFF 		bl	CYMEMZERO
 652              	.LVL39:
 653              	.LBE4:
 446:.\Generated_Source\PSoC5/cyfitter_cfg.c **** 		{
 654              		.loc 1 446 0 discriminator 3
 655 0032 0134     		adds	r4, r4, #1
 656              	.LVL40:
 657 0034 E4B2     		uxtb	r4, r4
 658              	.LVL41:
 659              	.L31:
 446:.\Generated_Source\PSoC5/cyfitter_cfg.c **** 		{
 660              		.loc 1 446 0 is_stmt 0 discriminator 1
 661 0036 052C     		cmp	r4, #5
 662 0038 F0D9     		bls	.L32
 663 003a 0024     		movs	r4, #0
 664              	.LVL42:
 665 003c 0BE0     		b	.L33
 666              	.LVL43:
 667              	.L34:
 668              	.LBB5:
 450:.\Generated_Source\PSoC5/cyfitter_cfg.c **** 		}
 451:.\Generated_Source\PSoC5/cyfitter_cfg.c **** 
 452:.\Generated_Source\PSoC5/cyfitter_cfg.c **** 		/* Copy device configuration data into registers */
 453:.\Generated_Source\PSoC5/cyfitter_cfg.c **** 		for (i = 0u; i < (sizeof(cfg_memcpy_list)/sizeof(cfg_memcpy_list[0])); i++)
 454:.\Generated_Source\PSoC5/cyfitter_cfg.c **** 		{
 455:.\Generated_Source\PSoC5/cyfitter_cfg.c **** 			const cfg_memcpy_t CYCODE * CYDATA mc = &cfg_memcpy_list[i];
 456:.\Generated_Source\PSoC5/cyfitter_cfg.c **** 			void * CYDATA destPtr = mc->dest;
 669              		.loc 1 456 0 is_stmt 1 discriminator 3
 670 003e 4049     		ldr	r1, .L36+8
 671 0040 A300     		lsls	r3, r4, #2
 672 0042 1A19     		adds	r2, r3, r4
 673 0044 5200     		lsls	r2, r2, #1
 674 0046 0A44     		add	r2, r2, r1
 675              	.LVL44:
 457:.\Generated_Source\PSoC5/cyfitter_cfg.c **** 			const void * CYDATA srcPtr = mc->src;
 458:.\Generated_Source\PSoC5/cyfitter_cfg.c **** 			uint16 CYDATA numBytes = mc->size;
 459:.\Generated_Source\PSoC5/cyfitter_cfg.c **** 			CYCONFIGCPY(destPtr, srcPtr, numBytes);
 676              		.loc 1 459 0 discriminator 3
 677 0048 506A     		ldr	r0, [r2, #36]	@ unaligned
 678              	.LVL45:
 679 004a 916A     		ldr	r1, [r2, #40]	@ unaligned
 680              	.LVL46:
 681 004c 1022     		movs	r2, #16
 682 004e FFF7FEFF 		bl	CYCONFIGCPY
 683              	.LVL47:
 684              	.LBE5:
 453:.\Generated_Source\PSoC5/cyfitter_cfg.c **** 		{
 685              		.loc 1 453 0 discriminator 3
 686 0052 0134     		adds	r4, r4, #1
 687              	.LVL48:
 688 0054 E4B2     		uxtb	r4, r4
 689              	.LVL49:
 690              	.L33:
ARM GAS  C:\Users\214016~1\AppData\Local\Temp\ccgWWHze.s 			page 22


 453:.\Generated_Source\PSoC5/cyfitter_cfg.c **** 		{
 691              		.loc 1 453 0 is_stmt 0 discriminator 1
 692 0056 002C     		cmp	r4, #0
 693 0058 F1D0     		beq	.L34
 460:.\Generated_Source\PSoC5/cyfitter_cfg.c **** 		}
 461:.\Generated_Source\PSoC5/cyfitter_cfg.c **** 
 462:.\Generated_Source\PSoC5/cyfitter_cfg.c **** 		cfg_write_bytes32(cy_cfg_addr_table, cy_cfg_data_table);
 694              		.loc 1 462 0 is_stmt 1
 695 005a 4FF09040 		mov	r0, #1207959552
 696 005e 3949     		ldr	r1, .L36+12
 697 0060 FFF7FEFF 		bl	cfg_write_bytes32
 698              	.LVL50:
 463:.\Generated_Source\PSoC5/cyfitter_cfg.c **** 
 464:.\Generated_Source\PSoC5/cyfitter_cfg.c **** 		/* Perform normal device configuration. Order is not critical for these items. */
 465:.\Generated_Source\PSoC5/cyfitter_cfg.c **** 		CY_SET_XTND_REG8((void CYFAR *)(CYREG_DSM0_CR3), 0x0Au);
 699              		.loc 1 465 0
 700 0064 0A25     		movs	r5, #10
 701 0066 384B     		ldr	r3, .L36+16
 702 0068 1D70     		strb	r5, [r3]
 466:.\Generated_Source\PSoC5/cyfitter_cfg.c **** 		CY_SET_XTND_REG16((void CYFAR *)(CYREG_LUT0_CR), 0x0003u);
 703              		.loc 1 466 0
 704 006a 0322     		movs	r2, #3
 705 006c 3B3B     		subs	r3, r3, #59
 706 006e 1A80     		strh	r2, [r3]	@ movhi
 467:.\Generated_Source\PSoC5/cyfitter_cfg.c **** 		CY_SET_XTND_REG16((void CYFAR *)(CYREG_LUT1_CR), 0x0103u);
 707              		.loc 1 467 0
 708 0070 40F20312 		movw	r2, #259
 709 0074 0233     		adds	r3, r3, #2
 710 0076 1A80     		strh	r2, [r3]	@ movhi
 468:.\Generated_Source\PSoC5/cyfitter_cfg.c **** 		CY_SET_XTND_REG16((void CYFAR *)(CYREG_LUT2_CR), 0x0203u);
 711              		.loc 1 468 0
 712 0078 40F20322 		movw	r2, #515
 713 007c 0233     		adds	r3, r3, #2
 714 007e 1A80     		strh	r2, [r3]	@ movhi
 469:.\Generated_Source\PSoC5/cyfitter_cfg.c **** 		CY_SET_XTND_REG16((void CYFAR *)(CYREG_LUT3_CR), 0x0303u);
 715              		.loc 1 469 0
 716 0080 40F20332 		movw	r2, #771
 717 0084 0233     		adds	r3, r3, #2
 718 0086 1A80     		strh	r2, [r3]	@ movhi
 470:.\Generated_Source\PSoC5/cyfitter_cfg.c **** 		CYMEMZERO((void CYFAR *)(CYREG_PHUB_CFGMEM0_CFG0), 4u);
 719              		.loc 1 470 0
 720 0088 3048     		ldr	r0, .L36+20
 721 008a 0421     		movs	r1, #4
 722 008c FFF7FEFF 		bl	CYMEMZERO
 723              	.LVL51:
 471:.\Generated_Source\PSoC5/cyfitter_cfg.c **** 		CYCONFIGCPY((void CYFAR *)(CYREG_PHUB_CFGMEM1_CFG0), (const void CYFAR *)(BS_PHUB_CFGMEM1_VAL), 4
 724              		.loc 1 471 0
 725 0090 2F48     		ldr	r0, .L36+24
 726 0092 3049     		ldr	r1, .L36+28
 727 0094 0422     		movs	r2, #4
 728 0096 FFF7FEFF 		bl	CYCONFIGCPY
 729              	.LVL52:
 472:.\Generated_Source\PSoC5/cyfitter_cfg.c **** 
 473:.\Generated_Source\PSoC5/cyfitter_cfg.c **** 		/* Enable digital routing */
 474:.\Generated_Source\PSoC5/cyfitter_cfg.c **** 		CY_SET_XTND_REG8((void CYFAR *)CYREG_BCTL0_BANK_CTL, CY_GET_XTND_REG8((void CYFAR *)CYREG_BCTL0_B
 730              		.loc 1 474 0
 731 009a 2F4A     		ldr	r2, .L36+32
ARM GAS  C:\Users\214016~1\AppData\Local\Temp\ccgWWHze.s 			page 23


 732 009c 1378     		ldrb	r3, [r2]	@ zero_extendqisi2
 733 009e 43F00203 		orr	r3, r3, #2
 734 00a2 1370     		strb	r3, [r2]
 475:.\Generated_Source\PSoC5/cyfitter_cfg.c **** 		CY_SET_XTND_REG8((void CYFAR *)CYREG_BCTL1_BANK_CTL, CY_GET_XTND_REG8((void CYFAR *)CYREG_BCTL1_B
 735              		.loc 1 475 0
 736 00a4 1032     		adds	r2, r2, #16
 737 00a6 1378     		ldrb	r3, [r2]	@ zero_extendqisi2
 738 00a8 43F00203 		orr	r3, r3, #2
 739 00ac 1370     		strb	r3, [r2]
 476:.\Generated_Source\PSoC5/cyfitter_cfg.c **** 
 477:.\Generated_Source\PSoC5/cyfitter_cfg.c **** 		/* Enable UDB array */
 478:.\Generated_Source\PSoC5/cyfitter_cfg.c **** 		CY_SET_XTND_REG8((void CYFAR *)CYREG_PM_ACT_CFG0, CY_GET_XTND_REG8((void CYFAR *)CYREG_PM_ACT_CFG
 740              		.loc 1 478 0
 741 00ae 2B4C     		ldr	r4, .L36+36
 742              	.LVL53:
 743 00b0 2378     		ldrb	r3, [r4]	@ zero_extendqisi2
 744 00b2 43F04003 		orr	r3, r3, #64
 745 00b6 2370     		strb	r3, [r4]
 479:.\Generated_Source\PSoC5/cyfitter_cfg.c **** 		CY_SET_XTND_REG8((void CYFAR *)CYREG_PM_AVAIL_CR2, CY_GET_XTND_REG8((void CYFAR *)CYREG_PM_AVAIL_
 746              		.loc 1 479 0
 747 00b8 A2F58632 		sub	r2, r2, #68608
 748 00bc 513A     		subs	r2, r2, #81
 749 00be 1378     		ldrb	r3, [r2]	@ zero_extendqisi2
 750 00c0 43F01003 		orr	r3, r3, #16
 751 00c4 1370     		strb	r3, [r2]
 752              	.LBE3:
 480:.\Generated_Source\PSoC5/cyfitter_cfg.c **** 	}
 481:.\Generated_Source\PSoC5/cyfitter_cfg.c **** 
 482:.\Generated_Source\PSoC5/cyfitter_cfg.c **** 
 483:.\Generated_Source\PSoC5/cyfitter_cfg.c **** 	/* Perform second pass device configuration. These items must be configured in specific order afte
 484:.\Generated_Source\PSoC5/cyfitter_cfg.c **** 	CYCONFIGCPY((void CYFAR *)(CYREG_PRT0_DM0), (const void CYFAR *)(BS_IOPINS0_0_VAL), 8u);
 753              		.loc 1 484 0
 754 00c6 2648     		ldr	r0, .L36+40
 755 00c8 2649     		ldr	r1, .L36+44
 756 00ca 0822     		movs	r2, #8
 757 00cc FFF7FEFF 		bl	CYCONFIGCPY
 758              	.LVL54:
 485:.\Generated_Source\PSoC5/cyfitter_cfg.c **** 	CYCONFIGCPY((void CYFAR *)(CYREG_PRT12_DM0), (const void CYFAR *)(BS_IOPINS0_7_VAL), 8u);
 759              		.loc 1 485 0
 760 00d0 2548     		ldr	r0, .L36+48
 761 00d2 2649     		ldr	r1, .L36+52
 762 00d4 0822     		movs	r2, #8
 763 00d6 FFF7FEFF 		bl	CYCONFIGCPY
 764              	.LVL55:
 486:.\Generated_Source\PSoC5/cyfitter_cfg.c **** 	CYCONFIGCPY((void CYFAR *)(CYREG_PRT15_DR), (const void CYFAR *)(BS_IOPINS0_8_VAL), 10u);
 765              		.loc 1 486 0
 766 00da 2548     		ldr	r0, .L36+56
 767 00dc 2549     		ldr	r1, .L36+60
 768 00de 2A46     		mov	r2, r5
 769 00e0 FFF7FEFF 		bl	CYCONFIGCPY
 770              	.LVL56:
 487:.\Generated_Source\PSoC5/cyfitter_cfg.c **** 	CYCONFIGCPY((void CYFAR *)(CYREG_PRT1_DM0), (const void CYFAR *)(BS_IOPINS0_1_VAL), 8u);
 771              		.loc 1 487 0
 772 00e4 2448     		ldr	r0, .L36+64
 773 00e6 2549     		ldr	r1, .L36+68
 774 00e8 0822     		movs	r2, #8
 775 00ea FFF7FEFF 		bl	CYCONFIGCPY
ARM GAS  C:\Users\214016~1\AppData\Local\Temp\ccgWWHze.s 			page 24


 776              	.LVL57:
 488:.\Generated_Source\PSoC5/cyfitter_cfg.c **** 	CYCONFIGCPY((void CYFAR *)(CYREG_PRT2_DM0), (const void CYFAR *)(BS_IOPINS0_2_VAL), 8u);
 777              		.loc 1 488 0
 778 00ee 2448     		ldr	r0, .L36+72
 779 00f0 2449     		ldr	r1, .L36+76
 780 00f2 0822     		movs	r2, #8
 781 00f4 FFF7FEFF 		bl	CYCONFIGCPY
 782              	.LVL58:
 489:.\Generated_Source\PSoC5/cyfitter_cfg.c **** 	CYCONFIGCPY((void CYFAR *)(CYREG_PRT3_DM0), (const void CYFAR *)(BS_IOPINS0_3_VAL), 8u);
 783              		.loc 1 489 0
 784 00f8 2348     		ldr	r0, .L36+80
 785 00fa 2449     		ldr	r1, .L36+84
 786 00fc 0822     		movs	r2, #8
 787 00fe FFF7FEFF 		bl	CYCONFIGCPY
 788              	.LVL59:
 490:.\Generated_Source\PSoC5/cyfitter_cfg.c **** 	CY_SET_XTND_REG8((void CYFAR *)(CYREG_B0_P1_U1_CFG24), 0x44u);
 789              		.loc 1 490 0
 790 0102 4423     		movs	r3, #68
 791 0104 224A     		ldr	r2, .L36+88
 792 0106 1370     		strb	r3, [r2]
 491:.\Generated_Source\PSoC5/cyfitter_cfg.c **** 	CY_SET_XTND_REG8((void CYFAR *)(CYREG_B0_P1_U1_CFG27), 0x44u);
 793              		.loc 1 491 0
 794 0108 0332     		adds	r2, r2, #3
 795 010a 1370     		strb	r3, [r2]
 492:.\Generated_Source\PSoC5/cyfitter_cfg.c **** 	CY_SET_XTND_REG8((void CYFAR *)(CYREG_B1_P2_U0_CFG27), 0x8Bu);
 796              		.loc 1 492 0
 797 010c 8B21     		movs	r1, #139
 798 010e 02F58C52 		add	r2, r2, #4480
 799 0112 1170     		strb	r1, [r2]
 493:.\Generated_Source\PSoC5/cyfitter_cfg.c **** 	CY_SET_XTND_REG8((void CYFAR *)(CYREG_B1_P3_U1_CFG24), 0x44u);
 800              		.loc 1 493 0
 801 0114 02F27D22 		addw	r2, r2, #637
 802 0118 1370     		strb	r3, [r2]
 494:.\Generated_Source\PSoC5/cyfitter_cfg.c **** 	/* Switch Boost to the precision bandgap reference from its internal reference */
 495:.\Generated_Source\PSoC5/cyfitter_cfg.c **** 	CY_SET_REG8((void CYXDATA *)CYREG_BOOST_CR2, (CY_GET_REG8((void CYXDATA *)CYREG_BOOST_CR2) | 0x08u
 803              		.loc 1 495 0
 804 011a A2F55342 		sub	r2, r2, #54016
 805 011e B63A     		subs	r2, r2, #182
 806 0120 1378     		ldrb	r3, [r2]	@ zero_extendqisi2
 807 0122 43F00803 		orr	r3, r3, #8
 808 0126 1370     		strb	r3, [r2]
 496:.\Generated_Source\PSoC5/cyfitter_cfg.c **** 
 497:.\Generated_Source\PSoC5/cyfitter_cfg.c **** 	/* Perform basic analog initialization to defaults */
 498:.\Generated_Source\PSoC5/cyfitter_cfg.c **** 	AnalogSetDefault();
 809              		.loc 1 498 0
 810 0128 FFF7FEFF 		bl	AnalogSetDefault
 811              	.LVL60:
 499:.\Generated_Source\PSoC5/cyfitter_cfg.c **** 
 500:.\Generated_Source\PSoC5/cyfitter_cfg.c **** 	/* Configure alternate active mode */
 501:.\Generated_Source\PSoC5/cyfitter_cfg.c **** 	CYCONFIGCPY((void CYFAR *)CYDEV_PM_STBY_BASE, (const void CYFAR *)CYDEV_PM_ACT_BASE, 14u);
 812              		.loc 1 501 0
 813 012c 1948     		ldr	r0, .L36+92
 814 012e 2146     		mov	r1, r4
 815 0130 0E22     		movs	r2, #14
 816 0132 FFF7FEFF 		bl	CYCONFIGCPY
 817              	.LVL61:
 818 0136 38BD     		pop	{r3, r4, r5, pc}
ARM GAS  C:\Users\214016~1\AppData\Local\Temp\ccgWWHze.s 			page 25


 819              	.L37:
 820              		.align	2
 821              	.L36:
 822 0138 00480040 		.word	1073760256
 823 013c E8460040 		.word	1073759976
 824 0140 00000000 		.word	.LANCHOR0
 825 0144 A4000048 		.word	1207959716
 826 0148 83580040 		.word	1073764483
 827 014c 00760040 		.word	1073772032
 828 0150 08760040 		.word	1073772040
 829 0154 980B0048 		.word	1207962520
 830 0158 03500140 		.word	1073827843
 831 015c A0430040 		.word	1073759136
 832 0160 02510040 		.word	1073762562
 833 0164 600B0048 		.word	1207962464
 834 0168 C2510040 		.word	1073762754
 835 016c 680B0048 		.word	1207962472
 836 0170 F0510040 		.word	1073762800
 837 0174 700B0048 		.word	1207962480
 838 0178 12510040 		.word	1073762578
 839 017c 7C0B0048 		.word	1207962492
 840 0180 22510040 		.word	1073762594
 841 0184 840B0048 		.word	1207962500
 842 0188 32510040 		.word	1073762610
 843 018c 8C0B0048 		.word	1207962508
 844 0190 D8020140 		.word	1073808088
 845 0194 B0430040 		.word	1073759152
 846              		.cfi_endproc
 847              	.LFE8:
 848              		.size	cyfitter_cfg, .-cyfitter_cfg
 849              		.section	.rodata
 850              		.align	2
 851              		.set	.LANCHOR0,. + 0
 852              		.type	cfg_memset_list.4887, %object
 853              		.size	cfg_memset_list.4887, 36
 854              	cfg_memset_list.4887:
 855 0000 40510040 		.word	1073762624
 856 0004 3000     		.short	48
 857 0006 00000140 		.4byte	1073807360
 858 000a 0010     		.short	4096
 859 000c 00140140 		.word	1073812480
 860 0010 0008     		.short	2048
 861 0012 00400140 		.4byte	1073823744
 862 0016 000A     		.short	2560
 863 0018 004C0140 		.word	1073826816
 864 001c 0002     		.short	512
 865 001e 10500140 		.4byte	1073827856
 866 0022 1000     		.short	16
 867              		.type	cfg_memcpy_list.4888, %object
 868              		.size	cfg_memcpy_list.4888, 10
 869              	cfg_memcpy_list.4888:
 870 0024 00500140 		.word	1073827840
 871 0028 500B0048 		.word	1207962448
 872 002c 1000     		.short	16
 873 002e 0000     		.text
 874              	.Letext0:
 875              		.file 2 "c:\\program files (x86)\\cypress\\psoc creator\\3.3\\psoc creator\\import\\gnu\\arm\\4.9.
ARM GAS  C:\Users\214016~1\AppData\Local\Temp\ccgWWHze.s 			page 26


 876              		.file 3 ".\\Generated_Source\\PSoC5\\cytypes.h"
 877              		.file 4 ".\\Generated_Source\\PSoC5\\CyLib.h"