ARM GAS  C:\Users\214016~1\AppData\Local\Temp\ccAmzuab.s 			page 1


   1              		.syntax unified
   2              		.cpu cortex-m3
   3              		.fpu softvfp
   4              		.eabi_attribute 20, 1
   5              		.eabi_attribute 21, 1
   6              		.eabi_attribute 23, 3
   7              		.eabi_attribute 24, 1
   8              		.eabi_attribute 25, 1
   9              		.eabi_attribute 26, 1
  10              		.eabi_attribute 30, 1
  11              		.eabi_attribute 34, 1
  12              		.eabi_attribute 18, 4
  13              		.thumb
  14              		.file	"main.c"
  15              		.text
  16              	.Ltext0:
  17              		.cfi_sections	.debug_frame
  18              		.global	__aeabi_i2d
  19              		.global	__aeabi_dmul
  20              		.global	__aeabi_d2iz
  21              		.section	.text.main,"ax",%progbits
  22              		.align	2
  23              		.global	main
  24              		.thumb
  25              		.thumb_func
  26              		.type	main, %function
  27              	main:
  28              	.LFB63:
  29              		.file 1 ".\\main.c"
   1:.\main.c      **** /* ========================================
   2:.\main.c      ****  *
   3:.\main.c      ****  * Copyright YOUR COMPANY, THE YEAR
   4:.\main.c      ****  * All Rights Reserved
   5:.\main.c      ****  * UNPUBLISHED, LICENSED SOFTWARE.
   6:.\main.c      ****  *
   7:.\main.c      ****  * CONFIDENTIAL AND PROPRIETARY INFORMATION
   8:.\main.c      ****  * WHICH IS THE PROPERTY OF your company.
   9:.\main.c      ****  *
  10:.\main.c      ****  * ========================================
  11:.\main.c      **** */
  12:.\main.c      **** #include <project.h>
  13:.\main.c      **** #include <math.h>
  14:.\main.c      **** 
  15:.\main.c      **** #define CAP_VALUE 0.027;
  16:.\main.c      **** #define VPP_VALUE 2.5;
  17:.\main.c      **** 
  18:.\main.c      **** int dac_value;
  19:.\main.c      **** 
  20:.\main.c      **** int main()
  21:.\main.c      **** {
  30              		.loc 1 21 0
  31              		.cfi_startproc
  32              		@ args = 0, pretend = 0, frame = 8
  33              		@ frame_needed = 0, uses_anonymous_args = 0
  34 0000 30B5     		push	{r4, r5, lr}
  35              		.cfi_def_cfa_offset 12
  36              		.cfi_offset 4, -12
ARM GAS  C:\Users\214016~1\AppData\Local\Temp\ccAmzuab.s 			page 2


  37              		.cfi_offset 5, -8
  38              		.cfi_offset 14, -4
  39 0002 83B0     		sub	sp, sp, #12
  40              		.cfi_def_cfa_offset 24
  41              	.LVL0:
  22:.\main.c      ****     int pinState = 0;
  23:.\main.c      ****     CyGlobalIntEnable; /* Enable global interrupts. */
  42              		.loc 1 23 0
  43              	@ 23 ".\main.c" 1
  44 0004 62B6     		CPSIE   i
  45              	@ 0 "" 2
  24:.\main.c      ****     volatile int myFixedValue = 1;
  46              		.loc 1 24 0
  47              		.thumb
  48 0006 0123     		movs	r3, #1
  49 0008 0193     		str	r3, [sp, #4]
  25:.\main.c      **** 
  26:.\main.c      ****     /* Place your initialization/startup code here (e.g. MyInst_Start()) */
  27:.\main.c      ****     OSC1_Freq_Timer_Start();
  50              		.loc 1 27 0
  51 000a FFF7FEFF 		bl	OSC1_Freq_Timer_Start
  52              	.LVL1:
  28:.\main.c      **** //    OSC1_Freq_Timer_1_Start();
  29:.\main.c      ****     OSC1_IDAC8_Start();
  53              		.loc 1 29 0
  54 000e FFF7FEFF 		bl	OSC1_IDAC8_Start
  55              	.LVL2:
  30:.\main.c      ****     Clock_1_Start();
  56              		.loc 1 30 0
  57 0012 FFF7FEFF 		bl	Clock_1_Start
  58              	.LVL3:
  31:.\main.c      ****     OSC1_IDAC8_SetValue(255);
  59              		.loc 1 31 0
  60 0016 FF20     		movs	r0, #255
  61 0018 FFF7FEFF 		bl	OSC1_IDAC8_SetValue
  62              	.LVL4:
  32:.\main.c      ****     OSC1_IDAC8_SAW_Start();
  63              		.loc 1 32 0
  64 001c FFF7FEFF 		bl	OSC1_IDAC8_SAW_Start
  65              	.LVL5:
  33:.\main.c      ****     OSC1_IDAC8_SAW_SetValue(255);
  66              		.loc 1 33 0
  67 0020 FF20     		movs	r0, #255
  68 0022 FFF7FEFF 		bl	OSC1_IDAC8_SAW_SetValue
  69              	.LVL6:
  34:.\main.c      ****     ADC_DelSig_1_Start();
  70              		.loc 1 34 0
  71 0026 FFF7FEFF 		bl	ADC_DelSig_1_Start
  72              	.LVL7:
  35:.\main.c      ****     ADC_DelSig_1_StartConvert();
  73              		.loc 1 35 0
  74 002a FFF7FEFF 		bl	ADC_DelSig_1_StartConvert
  75              	.LVL8:
  36:.\main.c      ****     OSC1_Freq_Timer_WritePeriod(36000);
  76              		.loc 1 36 0
  77 002e 48F6A040 		movw	r0, #36000
  78 0032 FFF7FEFF 		bl	OSC1_Freq_Timer_WritePeriod
ARM GAS  C:\Users\214016~1\AppData\Local\Temp\ccAmzuab.s 			page 3


  79              	.LVL9:
  37:.\main.c      **** //    OSC1_Freq_Timer_1_WritePeriod(36000);
  38:.\main.c      ****     OSC1_Triangle_Follower_Start();
  80              		.loc 1 38 0
  81 0036 FFF7FEFF 		bl	OSC1_Triangle_Follower_Start
  82              	.LVL10:
  39:.\main.c      ****     OSC1_Triangle_Follower_Enable();
  83              		.loc 1 39 0
  84 003a FFF7FEFF 		bl	OSC1_Triangle_Follower_Enable
  85              	.LVL11:
  40:.\main.c      ****     OSC1_Saw_Follower_Start();
  86              		.loc 1 40 0
  87 003e FFF7FEFF 		bl	OSC1_Saw_Follower_Start
  88              	.LVL12:
  41:.\main.c      ****     OSC1_Saw_Follower_Enable();
  89              		.loc 1 41 0
  90 0042 FFF7FEFF 		bl	OSC1_Saw_Follower_Enable
  91              	.LVL13:
  42:.\main.c      ****     OSC1_Comp_Start();
  92              		.loc 1 42 0
  93 0046 FFF7FEFF 		bl	OSC1_Comp_Start
  94              	.LVL14:
  43:.\main.c      ****     OSC1_Comp_Enable();
  95              		.loc 1 43 0
  96 004a FFF7FEFF 		bl	OSC1_Comp_Enable
  97              	.LVL15:
  22:.\main.c      ****     CyGlobalIntEnable; /* Enable global interrupts. */
  98              		.loc 1 22 0
  99 004e 0025     		movs	r5, #0
 100              	.LVL16:
 101              	.L11:
 102              	.LBB2:
  44:.\main.c      **** //    OSC1_Mux_Init();
  45:.\main.c      **** //    OSC1_Mux_Start();
  46:.\main.c      **** //    OSC1_Mux_Next();
  47:.\main.c      **** //    OSC1_ISR_Start();
  48:.\main.c      **** //    OSC1_Inverter_Start();
  49:.\main.c      **** //    OSC1_Inverter_Enable();
  50:.\main.c      ****     
  51:.\main.c      ****     for(;;)
  52:.\main.c      ****     {
  53:.\main.c      ****         if (pinState == 0)
 103              		.loc 1 53 0
 104 0050 25B9     		cbnz	r5, .L2
 105              	.LVL17:
  54:.\main.c      ****         {
  55:.\main.c      ****             pinState = 1;
  56:.\main.c      ****             test_pin_Write(00);
 106              		.loc 1 56 0
 107 0052 0020     		movs	r0, #0
 108 0054 FFF7FEFF 		bl	test_pin_Write
 109              	.LVL18:
  55:.\main.c      ****             test_pin_Write(00);
 110              		.loc 1 55 0
 111 0058 0125     		movs	r5, #1
 112 005a 03E0     		b	.L3
 113              	.LVL19:
ARM GAS  C:\Users\214016~1\AppData\Local\Temp\ccAmzuab.s 			page 4


 114              	.L2:
  57:.\main.c      ****         }
  58:.\main.c      ****         else
  59:.\main.c      ****         {
  60:.\main.c      ****             pinState = 0;
  61:.\main.c      ****             test_pin_Write(0xff);
 115              		.loc 1 61 0
 116 005c FF20     		movs	r0, #255
 117 005e FFF7FEFF 		bl	test_pin_Write
 118              	.LVL20:
  60:.\main.c      ****             test_pin_Write(0xff);
 119              		.loc 1 60 0
 120 0062 0025     		movs	r5, #0
 121              	.LVL21:
 122              	.L3:
  62:.\main.c      ****         }
  63:.\main.c      ****         int result = ADC_DelSig_1_GetResult32();
 123              		.loc 1 63 0
 124 0064 FFF7FEFF 		bl	ADC_DelSig_1_GetResult32
 125              	.LVL22:
  64:.\main.c      **** //        int frequency = (220*(pow(1.059463094,(12*ADC_DelSig_1_CountsTo_Volts(result)))));
  65:.\main.c      **** //        int frequency = (220*(pow(1.059463094,(12*myFixedValue))));
  66:.\main.c      ****         int frequency = (110*(pow(2, 5*result/65535)));
 126              		.loc 1 66 0
 127 0068 00EB8000 		add	r0, r0, r0, lsl #2
 128              	.LVL23:
 129 006c 2D4B     		ldr	r3, .L13
 130 006e 83FB0023 		smull	r2, r3, r3, r0
 131 0072 0344     		add	r3, r3, r0
 132 0074 C017     		asrs	r0, r0, #31
 133 0076 C0EBE330 		rsb	r0, r0, r3, asr #15
 134 007a FFF7FEFF 		bl	__aeabi_i2d
 135              	.LVL24:
 136 007e 0246     		mov	r2, r0
 137 0080 0B46     		mov	r3, r1
 138 0082 0020     		movs	r0, #0
 139 0084 4FF08041 		mov	r1, #1073741824
 140 0088 FFF7FEFF 		bl	pow
 141              	.LVL25:
 142 008c 0022     		movs	r2, #0
 143 008e 264B     		ldr	r3, .L13+4
 144 0090 FFF7FEFF 		bl	__aeabi_dmul
 145              	.LVL26:
 146 0094 FFF7FEFF 		bl	__aeabi_d2iz
 147              	.LVL27:
 148 0098 0446     		mov	r4, r0
 149              	.LVL28:
  67:.\main.c      ****         int count = 12000000/frequency;
  68:.\main.c      ****        OSC1_Freq_Timer_WritePeriod(count);
 150              		.loc 1 68 0
 151 009a 2448     		ldr	r0, .L13+8
 152              	.LVL29:
 153 009c 90FBF4F0 		sdiv	r0, r0, r4
 154              	.LVL30:
 155 00a0 FFF7FEFF 		bl	OSC1_Freq_Timer_WritePeriod
 156              	.LVL31:
  69:.\main.c      **** //       OSC1_Freq_Timer_1_WritePeriod(count*2);
ARM GAS  C:\Users\214016~1\AppData\Local\Temp\ccAmzuab.s 			page 5


  70:.\main.c      ****     if (frequency > 3950){
 157              		.loc 1 70 0
 158 00a4 40F66E73 		movw	r3, #3950
 159 00a8 9C42     		cmp	r4, r3
 160 00aa 0EDD     		ble	.L4
  71:.\main.c      ****         OSC1_IDAC8_SetRange(OSC1_IDAC8_RANGE_2mA);
 161              		.loc 1 71 0
 162 00ac 0820     		movs	r0, #8
 163 00ae FFF7FEFF 		bl	OSC1_IDAC8_SetRange
 164              	.LVL32:
  72:.\main.c      ****         OSC1_IDAC8_SAW_SetRange(OSC1_IDAC8_SAW_RANGE_2mA);
 165              		.loc 1 72 0
 166 00b2 0820     		movs	r0, #8
 167 00b4 FFF7FEFF 		bl	OSC1_IDAC8_SAW_SetRange
 168              	.LVL33:
  73:.\main.c      ****         dac_value = frequency / 32 ;
 169              		.loc 1 73 0
 170 00b8 2346     		mov	r3, r4
 171 00ba 002C     		cmp	r4, #0
 172 00bc 01DA     		bge	.L5
 173 00be 04F11F03 		add	r3, r4, #31
 174              	.L5:
 175 00c2 5B11     		asrs	r3, r3, #5
 176 00c4 1A4A     		ldr	r2, .L13+12
 177 00c6 1360     		str	r3, [r2]
 178 00c8 19E0     		b	.L6
 179              	.L4:
  74:.\main.c      ****     }
  75:.\main.c      ****     else if (frequency > 493){
 180              		.loc 1 75 0
 181 00ca B4F5F77F 		cmp	r4, #494
 182 00ce 0DDB     		blt	.L7
  76:.\main.c      ****         OSC1_IDAC8_SetRange(OSC1_IDAC8_RANGE_255uA);
 183              		.loc 1 76 0
 184 00d0 0420     		movs	r0, #4
 185 00d2 FFF7FEFF 		bl	OSC1_IDAC8_SetRange
 186              	.LVL34:
  77:.\main.c      ****         OSC1_IDAC8_SAW_SetRange(OSC1_IDAC8_SAW_RANGE_255uA);
 187              		.loc 1 77 0
 188 00d6 0420     		movs	r0, #4
 189 00d8 FFF7FEFF 		bl	OSC1_IDAC8_SAW_SetRange
 190              	.LVL35:
  78:.\main.c      ****         dac_value = frequency /4 ;}
 191              		.loc 1 78 0
 192 00dc 2346     		mov	r3, r4
 193 00de 002C     		cmp	r4, #0
 194 00e0 00DA     		bge	.L8
 195              	.LVL36:
 196 00e2 E31C     		adds	r3, r4, #3
 197              	.LVL37:
 198              	.L8:
 199 00e4 9B10     		asrs	r3, r3, #2
 200 00e6 124A     		ldr	r2, .L13+12
 201 00e8 1360     		str	r3, [r2]
 202 00ea 08E0     		b	.L6
 203              	.L7:
  79:.\main.c      ****     else {
ARM GAS  C:\Users\214016~1\AppData\Local\Temp\ccAmzuab.s 			page 6


  80:.\main.c      ****         OSC1_IDAC8_SetRange(OSC1_IDAC8_RANGE_32uA);
 204              		.loc 1 80 0
 205 00ec 0020     		movs	r0, #0
 206 00ee FFF7FEFF 		bl	OSC1_IDAC8_SetRange
 207              	.LVL38:
  81:.\main.c      ****         OSC1_IDAC8_SAW_SetRange(OSC1_IDAC8_SAW_RANGE_32uA);
 208              		.loc 1 81 0
 209 00f2 0020     		movs	r0, #0
 210 00f4 FFF7FEFF 		bl	OSC1_IDAC8_SAW_SetRange
 211              	.LVL39:
  82:.\main.c      ****         dac_value = frequency * 2;
 212              		.loc 1 82 0
 213 00f8 6400     		lsls	r4, r4, #1
 214              	.LVL40:
 215 00fa 0D4B     		ldr	r3, .L13+12
 216 00fc 1C60     		str	r4, [r3]
 217              	.L6:
  83:.\main.c      ****      }   
  84:.\main.c      ****         
  85:.\main.c      ****    //    dac_value=(frequency/8);
  86:.\main.c      ****     OSC1_IDAC8_SetValue(dac_value/4);
 218              		.loc 1 86 0
 219 00fe 0C4B     		ldr	r3, .L13+12
 220 0100 1868     		ldr	r0, [r3]
 221 0102 0028     		cmp	r0, #0
 222 0104 00DA     		bge	.L9
 223 0106 0330     		adds	r0, r0, #3
 224              	.L9:
 225 0108 C0F38700 		ubfx	r0, r0, #2, #8
 226 010c FFF7FEFF 		bl	OSC1_IDAC8_SetValue
 227              	.LVL41:
  87:.\main.c      ****     OSC1_IDAC8_SAW_SetValue(dac_value/4);
 228              		.loc 1 87 0
 229 0110 074B     		ldr	r3, .L13+12
 230 0112 1868     		ldr	r0, [r3]
 231 0114 0028     		cmp	r0, #0
 232 0116 00DA     		bge	.L10
 233 0118 0330     		adds	r0, r0, #3
 234              	.L10:
 235 011a C0F38700 		ubfx	r0, r0, #2, #8
 236 011e FFF7FEFF 		bl	OSC1_IDAC8_SAW_SetValue
 237              	.LVL42:
 238              	.LBE2:
  88:.\main.c      ****   //      CyDelay(1000); /* Place your application code here. */
  89:.\main.c      ****     //   Freq_Timer_WritePeriod(36000);
  90:.\main.c      ****    //    IDAC8_1_SetValue(127);
  91:.\main.c      **** //       CyDelay(5000);
  92:.\main.c      **** //       Freq_Timer_WritePeriod(18000);
  93:.\main.c      ****    //    IDAC8_1_SetValue(255);
  94:.\main.c      ****     }
 239              		.loc 1 94 0
 240 0122 95E7     		b	.L11
 241              	.L14:
 242              		.align	2
 243              	.L13:
 244 0124 01800080 		.word	-2147450879
 245 0128 00805B40 		.word	1079738368
ARM GAS  C:\Users\214016~1\AppData\Local\Temp\ccAmzuab.s 			page 7


 246 012c 001BB700 		.word	12000000
 247 0130 00000000 		.word	dac_value
 248              		.cfi_endproc
 249              	.LFE63:
 250              		.size	main, .-main
 251              		.comm	dac_value,4,4
 252              		.text
 253              	.Letext0:
 254              		.file 2 "c:\\program files (x86)\\cypress\\psoc creator\\3.3\\psoc creator\\import\\gnu\\arm\\4.9.
 255              		.file 3 "c:\\program files (x86)\\cypress\\psoc creator\\3.3\\psoc creator\\import\\gnu\\arm\\4.9.
 256              		.file 4 "Generated_Source\\PSoC5/cytypes.h"
 257              		.file 5 "Generated_Source\\PSoC5/core_cm3.h"
 258              		.file 6 "Generated_Source\\PSoC5/test_pin.h"
 259              		.file 7 "Generated_Source\\PSoC5/OSC1_Freq_Timer.h"
 260              		.file 8 "Generated_Source\\PSoC5/OSC1_IDAC8.h"
 261              		.file 9 "Generated_Source\\PSoC5/OSC1_IDAC8_SAW.h"
 262              		.file 10 "Generated_Source\\PSoC5/Clock_1.h"
 263              		.file 11 "Generated_Source\\PSoC5/ADC_DelSig_1.h"
 264              		.file 12 "Generated_Source\\PSoC5/OSC1_Triangle_Follower.h"
 265              		.file 13 "Generated_Source\\PSoC5/OSC1_Saw_Follower.h"
 266              		.file 14 "Generated_Source\\PSoC5/OSC1_Comp.h"
 267              		.file 15 "c:\\program files (x86)\\cypress\\psoc creator\\3.3\\psoc creator\\import\\gnu\\arm\\4.9