ARM GAS  C:\Users\214016~1\AppData\Local\Temp\ccW4XqOJ.s 			page 1


   1              		.syntax unified
   2              		.cpu cortex-m3
   3              		.fpu softvfp
   4              		.eabi_attribute 20, 1
   5              		.eabi_attribute 21, 1
   6              		.eabi_attribute 23, 3
   7              		.eabi_attribute 24, 1
   8              		.eabi_attribute 25, 1
   9              		.eabi_attribute 26, 1
  10              		.eabi_attribute 30, 1
  11              		.eabi_attribute 34, 1
  12              		.eabi_attribute 18, 4
  13              		.thumb
  14              		.file	"OSC1_ISR.c"
  15              		.text
  16              	.Ltext0:
  17              		.cfi_sections	.debug_frame
  18              		.section	.text.OSC1_ISR_Interrupt,"ax",%progbits
  19              		.align	2
  20              		.global	OSC1_ISR_Interrupt
  21              		.thumb
  22              		.thumb_func
  23              		.type	OSC1_ISR_Interrupt, %function
  24              	OSC1_ISR_Interrupt:
  25              	.LFB3:
  26              		.file 1 ".\\Generated_Source\\PSoC5\\OSC1_ISR.c"
   1:.\Generated_Source\PSoC5/OSC1_ISR.c **** /*******************************************************************************
   2:.\Generated_Source\PSoC5/OSC1_ISR.c **** * File Name: OSC1_ISR.c  
   3:.\Generated_Source\PSoC5/OSC1_ISR.c **** * Version 1.70
   4:.\Generated_Source\PSoC5/OSC1_ISR.c **** *
   5:.\Generated_Source\PSoC5/OSC1_ISR.c **** *  Description:
   6:.\Generated_Source\PSoC5/OSC1_ISR.c **** *   API for controlling the state of an interrupt.
   7:.\Generated_Source\PSoC5/OSC1_ISR.c **** *
   8:.\Generated_Source\PSoC5/OSC1_ISR.c **** *
   9:.\Generated_Source\PSoC5/OSC1_ISR.c **** *  Note:
  10:.\Generated_Source\PSoC5/OSC1_ISR.c **** *
  11:.\Generated_Source\PSoC5/OSC1_ISR.c **** ********************************************************************************
  12:.\Generated_Source\PSoC5/OSC1_ISR.c **** * Copyright 2008-2015, Cypress Semiconductor Corporation.  All rights reserved.
  13:.\Generated_Source\PSoC5/OSC1_ISR.c **** * You may use this file only in accordance with the license, terms, conditions, 
  14:.\Generated_Source\PSoC5/OSC1_ISR.c **** * disclaimers, and limitations in the end user license agreement accompanying 
  15:.\Generated_Source\PSoC5/OSC1_ISR.c **** * the software package with which this file was provided.
  16:.\Generated_Source\PSoC5/OSC1_ISR.c **** *******************************************************************************/
  17:.\Generated_Source\PSoC5/OSC1_ISR.c **** 
  18:.\Generated_Source\PSoC5/OSC1_ISR.c **** 
  19:.\Generated_Source\PSoC5/OSC1_ISR.c **** #include <cydevice_trm.h>
  20:.\Generated_Source\PSoC5/OSC1_ISR.c **** #include <CyLib.h>
  21:.\Generated_Source\PSoC5/OSC1_ISR.c **** #include <OSC1_ISR.h>
  22:.\Generated_Source\PSoC5/OSC1_ISR.c **** #include "cyapicallbacks.h"
  23:.\Generated_Source\PSoC5/OSC1_ISR.c **** 
  24:.\Generated_Source\PSoC5/OSC1_ISR.c **** #if !defined(OSC1_ISR__REMOVED) /* Check for removal by optimization */
  25:.\Generated_Source\PSoC5/OSC1_ISR.c **** 
  26:.\Generated_Source\PSoC5/OSC1_ISR.c **** /*******************************************************************************
  27:.\Generated_Source\PSoC5/OSC1_ISR.c **** *  Place your includes, defines and code here 
  28:.\Generated_Source\PSoC5/OSC1_ISR.c **** ********************************************************************************/
  29:.\Generated_Source\PSoC5/OSC1_ISR.c **** /* `#START OSC1_ISR_intc` */
  30:.\Generated_Source\PSoC5/OSC1_ISR.c **** 
  31:.\Generated_Source\PSoC5/OSC1_ISR.c **** /* `#END` */
ARM GAS  C:\Users\214016~1\AppData\Local\Temp\ccW4XqOJ.s 			page 2


  32:.\Generated_Source\PSoC5/OSC1_ISR.c **** 
  33:.\Generated_Source\PSoC5/OSC1_ISR.c **** #ifndef CYINT_IRQ_BASE
  34:.\Generated_Source\PSoC5/OSC1_ISR.c **** #define CYINT_IRQ_BASE      16
  35:.\Generated_Source\PSoC5/OSC1_ISR.c **** #endif /* CYINT_IRQ_BASE */
  36:.\Generated_Source\PSoC5/OSC1_ISR.c **** #ifndef CYINT_VECT_TABLE
  37:.\Generated_Source\PSoC5/OSC1_ISR.c **** #define CYINT_VECT_TABLE    ((cyisraddress **) CYREG_NVIC_VECT_OFFSET)
  38:.\Generated_Source\PSoC5/OSC1_ISR.c **** #endif /* CYINT_VECT_TABLE */
  39:.\Generated_Source\PSoC5/OSC1_ISR.c **** 
  40:.\Generated_Source\PSoC5/OSC1_ISR.c **** /* Declared in startup, used to set unused interrupts to. */
  41:.\Generated_Source\PSoC5/OSC1_ISR.c **** CY_ISR_PROTO(IntDefaultHandler);
  42:.\Generated_Source\PSoC5/OSC1_ISR.c **** 
  43:.\Generated_Source\PSoC5/OSC1_ISR.c **** 
  44:.\Generated_Source\PSoC5/OSC1_ISR.c **** /*******************************************************************************
  45:.\Generated_Source\PSoC5/OSC1_ISR.c **** * Function Name: OSC1_ISR_Start
  46:.\Generated_Source\PSoC5/OSC1_ISR.c **** ********************************************************************************
  47:.\Generated_Source\PSoC5/OSC1_ISR.c **** *
  48:.\Generated_Source\PSoC5/OSC1_ISR.c **** * Summary:
  49:.\Generated_Source\PSoC5/OSC1_ISR.c **** *  Set up the interrupt and enable it. This function disables the interrupt, 
  50:.\Generated_Source\PSoC5/OSC1_ISR.c **** *  sets the default interrupt vector, sets the priority from the value in the
  51:.\Generated_Source\PSoC5/OSC1_ISR.c **** *  Design Wide Resources Interrupt Editor, then enables the interrupt to the 
  52:.\Generated_Source\PSoC5/OSC1_ISR.c **** *  interrupt controller.
  53:.\Generated_Source\PSoC5/OSC1_ISR.c **** *
  54:.\Generated_Source\PSoC5/OSC1_ISR.c **** * Parameters:  
  55:.\Generated_Source\PSoC5/OSC1_ISR.c **** *   None
  56:.\Generated_Source\PSoC5/OSC1_ISR.c **** *
  57:.\Generated_Source\PSoC5/OSC1_ISR.c **** * Return:
  58:.\Generated_Source\PSoC5/OSC1_ISR.c **** *   None
  59:.\Generated_Source\PSoC5/OSC1_ISR.c **** *
  60:.\Generated_Source\PSoC5/OSC1_ISR.c **** *******************************************************************************/
  61:.\Generated_Source\PSoC5/OSC1_ISR.c **** void OSC1_ISR_Start(void)
  62:.\Generated_Source\PSoC5/OSC1_ISR.c **** {
  63:.\Generated_Source\PSoC5/OSC1_ISR.c ****     /* For all we know the interrupt is active. */
  64:.\Generated_Source\PSoC5/OSC1_ISR.c ****     OSC1_ISR_Disable();
  65:.\Generated_Source\PSoC5/OSC1_ISR.c **** 
  66:.\Generated_Source\PSoC5/OSC1_ISR.c ****     /* Set the ISR to point to the OSC1_ISR Interrupt. */
  67:.\Generated_Source\PSoC5/OSC1_ISR.c ****     OSC1_ISR_SetVector(&OSC1_ISR_Interrupt);
  68:.\Generated_Source\PSoC5/OSC1_ISR.c **** 
  69:.\Generated_Source\PSoC5/OSC1_ISR.c ****     /* Set the priority. */
  70:.\Generated_Source\PSoC5/OSC1_ISR.c ****     OSC1_ISR_SetPriority((uint8)OSC1_ISR_INTC_PRIOR_NUMBER);
  71:.\Generated_Source\PSoC5/OSC1_ISR.c **** 
  72:.\Generated_Source\PSoC5/OSC1_ISR.c ****     /* Enable it. */
  73:.\Generated_Source\PSoC5/OSC1_ISR.c ****     OSC1_ISR_Enable();
  74:.\Generated_Source\PSoC5/OSC1_ISR.c **** }
  75:.\Generated_Source\PSoC5/OSC1_ISR.c **** 
  76:.\Generated_Source\PSoC5/OSC1_ISR.c **** 
  77:.\Generated_Source\PSoC5/OSC1_ISR.c **** /*******************************************************************************
  78:.\Generated_Source\PSoC5/OSC1_ISR.c **** * Function Name: OSC1_ISR_StartEx
  79:.\Generated_Source\PSoC5/OSC1_ISR.c **** ********************************************************************************
  80:.\Generated_Source\PSoC5/OSC1_ISR.c **** *
  81:.\Generated_Source\PSoC5/OSC1_ISR.c **** * Summary:
  82:.\Generated_Source\PSoC5/OSC1_ISR.c **** *  Sets up the interrupt and enables it. This function disables the interrupt,
  83:.\Generated_Source\PSoC5/OSC1_ISR.c **** *  sets the interrupt vector based on the address passed in, sets the priority 
  84:.\Generated_Source\PSoC5/OSC1_ISR.c **** *  from the value in the Design Wide Resources Interrupt Editor, then enables 
  85:.\Generated_Source\PSoC5/OSC1_ISR.c **** *  the interrupt to the interrupt controller.
  86:.\Generated_Source\PSoC5/OSC1_ISR.c **** *  
  87:.\Generated_Source\PSoC5/OSC1_ISR.c **** *  When defining ISR functions, the CY_ISR and CY_ISR_PROTO macros should be 
  88:.\Generated_Source\PSoC5/OSC1_ISR.c **** *  used to provide consistent definition across compilers:
ARM GAS  C:\Users\214016~1\AppData\Local\Temp\ccW4XqOJ.s 			page 3


  89:.\Generated_Source\PSoC5/OSC1_ISR.c **** *  
  90:.\Generated_Source\PSoC5/OSC1_ISR.c **** *  Function definition example:
  91:.\Generated_Source\PSoC5/OSC1_ISR.c **** *   CY_ISR(MyISR)
  92:.\Generated_Source\PSoC5/OSC1_ISR.c **** *   {
  93:.\Generated_Source\PSoC5/OSC1_ISR.c **** *   }
  94:.\Generated_Source\PSoC5/OSC1_ISR.c **** *   Function prototype example:
  95:.\Generated_Source\PSoC5/OSC1_ISR.c **** *   CY_ISR_PROTO(MyISR);
  96:.\Generated_Source\PSoC5/OSC1_ISR.c **** *
  97:.\Generated_Source\PSoC5/OSC1_ISR.c **** * Parameters:  
  98:.\Generated_Source\PSoC5/OSC1_ISR.c **** *   address: Address of the ISR to set in the interrupt vector table.
  99:.\Generated_Source\PSoC5/OSC1_ISR.c **** *
 100:.\Generated_Source\PSoC5/OSC1_ISR.c **** * Return:
 101:.\Generated_Source\PSoC5/OSC1_ISR.c **** *   None
 102:.\Generated_Source\PSoC5/OSC1_ISR.c **** *
 103:.\Generated_Source\PSoC5/OSC1_ISR.c **** *******************************************************************************/
 104:.\Generated_Source\PSoC5/OSC1_ISR.c **** void OSC1_ISR_StartEx(cyisraddress address)
 105:.\Generated_Source\PSoC5/OSC1_ISR.c **** {
 106:.\Generated_Source\PSoC5/OSC1_ISR.c ****     /* For all we know the interrupt is active. */
 107:.\Generated_Source\PSoC5/OSC1_ISR.c ****     OSC1_ISR_Disable();
 108:.\Generated_Source\PSoC5/OSC1_ISR.c **** 
 109:.\Generated_Source\PSoC5/OSC1_ISR.c ****     /* Set the ISR to point to the OSC1_ISR Interrupt. */
 110:.\Generated_Source\PSoC5/OSC1_ISR.c ****     OSC1_ISR_SetVector(address);
 111:.\Generated_Source\PSoC5/OSC1_ISR.c **** 
 112:.\Generated_Source\PSoC5/OSC1_ISR.c ****     /* Set the priority. */
 113:.\Generated_Source\PSoC5/OSC1_ISR.c ****     OSC1_ISR_SetPriority((uint8)OSC1_ISR_INTC_PRIOR_NUMBER);
 114:.\Generated_Source\PSoC5/OSC1_ISR.c **** 
 115:.\Generated_Source\PSoC5/OSC1_ISR.c ****     /* Enable it. */
 116:.\Generated_Source\PSoC5/OSC1_ISR.c ****     OSC1_ISR_Enable();
 117:.\Generated_Source\PSoC5/OSC1_ISR.c **** }
 118:.\Generated_Source\PSoC5/OSC1_ISR.c **** 
 119:.\Generated_Source\PSoC5/OSC1_ISR.c **** 
 120:.\Generated_Source\PSoC5/OSC1_ISR.c **** /*******************************************************************************
 121:.\Generated_Source\PSoC5/OSC1_ISR.c **** * Function Name: OSC1_ISR_Stop
 122:.\Generated_Source\PSoC5/OSC1_ISR.c **** ********************************************************************************
 123:.\Generated_Source\PSoC5/OSC1_ISR.c **** *
 124:.\Generated_Source\PSoC5/OSC1_ISR.c **** * Summary:
 125:.\Generated_Source\PSoC5/OSC1_ISR.c **** *   Disables and removes the interrupt.
 126:.\Generated_Source\PSoC5/OSC1_ISR.c **** *
 127:.\Generated_Source\PSoC5/OSC1_ISR.c **** * Parameters:  
 128:.\Generated_Source\PSoC5/OSC1_ISR.c **** *   None
 129:.\Generated_Source\PSoC5/OSC1_ISR.c **** *
 130:.\Generated_Source\PSoC5/OSC1_ISR.c **** * Return:
 131:.\Generated_Source\PSoC5/OSC1_ISR.c **** *   None
 132:.\Generated_Source\PSoC5/OSC1_ISR.c **** *
 133:.\Generated_Source\PSoC5/OSC1_ISR.c **** *******************************************************************************/
 134:.\Generated_Source\PSoC5/OSC1_ISR.c **** void OSC1_ISR_Stop(void)
 135:.\Generated_Source\PSoC5/OSC1_ISR.c **** {
 136:.\Generated_Source\PSoC5/OSC1_ISR.c ****     /* Disable this interrupt. */
 137:.\Generated_Source\PSoC5/OSC1_ISR.c ****     OSC1_ISR_Disable();
 138:.\Generated_Source\PSoC5/OSC1_ISR.c **** 
 139:.\Generated_Source\PSoC5/OSC1_ISR.c ****     /* Set the ISR to point to the passive one. */
 140:.\Generated_Source\PSoC5/OSC1_ISR.c ****     OSC1_ISR_SetVector(&IntDefaultHandler);
 141:.\Generated_Source\PSoC5/OSC1_ISR.c **** }
 142:.\Generated_Source\PSoC5/OSC1_ISR.c **** 
 143:.\Generated_Source\PSoC5/OSC1_ISR.c **** 
 144:.\Generated_Source\PSoC5/OSC1_ISR.c **** /*******************************************************************************
 145:.\Generated_Source\PSoC5/OSC1_ISR.c **** * Function Name: OSC1_ISR_Interrupt
ARM GAS  C:\Users\214016~1\AppData\Local\Temp\ccW4XqOJ.s 			page 4


 146:.\Generated_Source\PSoC5/OSC1_ISR.c **** ********************************************************************************
 147:.\Generated_Source\PSoC5/OSC1_ISR.c **** *
 148:.\Generated_Source\PSoC5/OSC1_ISR.c **** * Summary:
 149:.\Generated_Source\PSoC5/OSC1_ISR.c **** *   The default Interrupt Service Routine for OSC1_ISR.
 150:.\Generated_Source\PSoC5/OSC1_ISR.c **** *
 151:.\Generated_Source\PSoC5/OSC1_ISR.c **** *   Add custom code between the coments to keep the next version of this file
 152:.\Generated_Source\PSoC5/OSC1_ISR.c **** *   from over writting your code.
 153:.\Generated_Source\PSoC5/OSC1_ISR.c **** *
 154:.\Generated_Source\PSoC5/OSC1_ISR.c **** * Parameters:  
 155:.\Generated_Source\PSoC5/OSC1_ISR.c **** *
 156:.\Generated_Source\PSoC5/OSC1_ISR.c **** * Return:
 157:.\Generated_Source\PSoC5/OSC1_ISR.c **** *   None
 158:.\Generated_Source\PSoC5/OSC1_ISR.c **** *
 159:.\Generated_Source\PSoC5/OSC1_ISR.c **** *******************************************************************************/
 160:.\Generated_Source\PSoC5/OSC1_ISR.c **** CY_ISR(OSC1_ISR_Interrupt)
 161:.\Generated_Source\PSoC5/OSC1_ISR.c **** {
  27              		.loc 1 161 0
  28              		.cfi_startproc
  29              		@ args = 0, pretend = 0, frame = 0
  30              		@ frame_needed = 0, uses_anonymous_args = 0
  31 0000 08B5     		push	{r3, lr}
  32              		.cfi_def_cfa_offset 8
  33              		.cfi_offset 3, -8
  34              		.cfi_offset 14, -4
 162:.\Generated_Source\PSoC5/OSC1_ISR.c ****     #ifdef OSC1_ISR_INTERRUPT_INTERRUPT_CALLBACK
 163:.\Generated_Source\PSoC5/OSC1_ISR.c ****         OSC1_ISR_Interrupt_InterruptCallback();
 164:.\Generated_Source\PSoC5/OSC1_ISR.c ****     #endif /* OSC1_ISR_INTERRUPT_INTERRUPT_CALLBACK */ 
 165:.\Generated_Source\PSoC5/OSC1_ISR.c **** 
 166:.\Generated_Source\PSoC5/OSC1_ISR.c ****     /*  Place your Interrupt code here. */
 167:.\Generated_Source\PSoC5/OSC1_ISR.c ****     /* `#START OSC1_ISR_Interrupt` */
 168:.\Generated_Source\PSoC5/OSC1_ISR.c **** Pin_2_Write(0xFF);
  35              		.loc 1 168 0
  36 0002 FF20     		movs	r0, #255
  37 0004 FFF7FEFF 		bl	Pin_2_Write
  38              	.LVL0:
 169:.\Generated_Source\PSoC5/OSC1_ISR.c **** CyDelayUs(10);
  39              		.loc 1 169 0
  40 0008 0A20     		movs	r0, #10
  41 000a FFF7FEFF 		bl	CyDelayUs
  42              	.LVL1:
 170:.\Generated_Source\PSoC5/OSC1_ISR.c **** Pin_2_Write(0x00);
  43              		.loc 1 170 0
  44 000e 0020     		movs	r0, #0
  45 0010 FFF7FEFF 		bl	Pin_2_Write
  46              	.LVL2:
 171:.\Generated_Source\PSoC5/OSC1_ISR.c **** //OSC1_Mux_Next();
 172:.\Generated_Source\PSoC5/OSC1_ISR.c **** OSC1_Freq_Timer_1_ReadStatusRegister();
  47              		.loc 1 172 0
  48 0014 FFF7FEFF 		bl	OSC1_Freq_Timer_1_ReadStatusRegister
  49              	.LVL3:
  50 0018 08BD     		pop	{r3, pc}
  51              		.cfi_endproc
  52              	.LFE3:
  53              		.size	OSC1_ISR_Interrupt, .-OSC1_ISR_Interrupt
  54 001a 00BF     		.section	.text.OSC1_ISR_SetVector,"ax",%progbits
  55              		.align	2
  56              		.global	OSC1_ISR_SetVector
ARM GAS  C:\Users\214016~1\AppData\Local\Temp\ccW4XqOJ.s 			page 5


  57              		.thumb
  58              		.thumb_func
  59              		.type	OSC1_ISR_SetVector, %function
  60              	OSC1_ISR_SetVector:
  61              	.LFB4:
 173:.\Generated_Source\PSoC5/OSC1_ISR.c ****     /* `#END` */
 174:.\Generated_Source\PSoC5/OSC1_ISR.c **** }
 175:.\Generated_Source\PSoC5/OSC1_ISR.c **** 
 176:.\Generated_Source\PSoC5/OSC1_ISR.c **** 
 177:.\Generated_Source\PSoC5/OSC1_ISR.c **** /*******************************************************************************
 178:.\Generated_Source\PSoC5/OSC1_ISR.c **** * Function Name: OSC1_ISR_SetVector
 179:.\Generated_Source\PSoC5/OSC1_ISR.c **** ********************************************************************************
 180:.\Generated_Source\PSoC5/OSC1_ISR.c **** *
 181:.\Generated_Source\PSoC5/OSC1_ISR.c **** * Summary:
 182:.\Generated_Source\PSoC5/OSC1_ISR.c **** *   Change the ISR vector for the Interrupt. Note calling OSC1_ISR_Start
 183:.\Generated_Source\PSoC5/OSC1_ISR.c **** *   will override any effect this method would have had. To set the vector 
 184:.\Generated_Source\PSoC5/OSC1_ISR.c **** *   before the component has been started use OSC1_ISR_StartEx instead.
 185:.\Generated_Source\PSoC5/OSC1_ISR.c **** * 
 186:.\Generated_Source\PSoC5/OSC1_ISR.c **** *   When defining ISR functions, the CY_ISR and CY_ISR_PROTO macros should be 
 187:.\Generated_Source\PSoC5/OSC1_ISR.c **** *   used to provide consistent definition across compilers:
 188:.\Generated_Source\PSoC5/OSC1_ISR.c **** *
 189:.\Generated_Source\PSoC5/OSC1_ISR.c **** *   Function definition example:
 190:.\Generated_Source\PSoC5/OSC1_ISR.c **** *   CY_ISR(MyISR)
 191:.\Generated_Source\PSoC5/OSC1_ISR.c **** *   {
 192:.\Generated_Source\PSoC5/OSC1_ISR.c **** *   }
 193:.\Generated_Source\PSoC5/OSC1_ISR.c **** *
 194:.\Generated_Source\PSoC5/OSC1_ISR.c **** *   Function prototype example:
 195:.\Generated_Source\PSoC5/OSC1_ISR.c **** *     CY_ISR_PROTO(MyISR);
 196:.\Generated_Source\PSoC5/OSC1_ISR.c **** *
 197:.\Generated_Source\PSoC5/OSC1_ISR.c **** * Parameters:
 198:.\Generated_Source\PSoC5/OSC1_ISR.c **** *   address: Address of the ISR to set in the interrupt vector table.
 199:.\Generated_Source\PSoC5/OSC1_ISR.c **** *
 200:.\Generated_Source\PSoC5/OSC1_ISR.c **** * Return:
 201:.\Generated_Source\PSoC5/OSC1_ISR.c **** *   None
 202:.\Generated_Source\PSoC5/OSC1_ISR.c **** *
 203:.\Generated_Source\PSoC5/OSC1_ISR.c **** *******************************************************************************/
 204:.\Generated_Source\PSoC5/OSC1_ISR.c **** void OSC1_ISR_SetVector(cyisraddress address)
 205:.\Generated_Source\PSoC5/OSC1_ISR.c **** {
  62              		.loc 1 205 0
  63              		.cfi_startproc
  64              		@ args = 0, pretend = 0, frame = 0
  65              		@ frame_needed = 0, uses_anonymous_args = 0
  66              		@ link register save eliminated.
  67              	.LVL4:
 206:.\Generated_Source\PSoC5/OSC1_ISR.c ****     cyisraddress * ramVectorTable;
 207:.\Generated_Source\PSoC5/OSC1_ISR.c **** 
 208:.\Generated_Source\PSoC5/OSC1_ISR.c ****     ramVectorTable = (cyisraddress *) *CYINT_VECT_TABLE;
  68              		.loc 1 208 0
  69 0000 014B     		ldr	r3, .L4
  70 0002 1B68     		ldr	r3, [r3]
  71              	.LVL5:
 209:.\Generated_Source\PSoC5/OSC1_ISR.c **** 
 210:.\Generated_Source\PSoC5/OSC1_ISR.c ****     ramVectorTable[CYINT_IRQ_BASE + (uint32)OSC1_ISR__INTC_NUMBER] = address;
  72              		.loc 1 210 0
  73 0004 1864     		str	r0, [r3, #64]
  74 0006 7047     		bx	lr
  75              	.L5:
ARM GAS  C:\Users\214016~1\AppData\Local\Temp\ccW4XqOJ.s 			page 6


  76              		.align	2
  77              	.L4:
  78 0008 08ED00E0 		.word	-536810232
  79              		.cfi_endproc
  80              	.LFE4:
  81              		.size	OSC1_ISR_SetVector, .-OSC1_ISR_SetVector
  82              		.section	.text.OSC1_ISR_GetVector,"ax",%progbits
  83              		.align	2
  84              		.global	OSC1_ISR_GetVector
  85              		.thumb
  86              		.thumb_func
  87              		.type	OSC1_ISR_GetVector, %function
  88              	OSC1_ISR_GetVector:
  89              	.LFB5:
 211:.\Generated_Source\PSoC5/OSC1_ISR.c **** }
 212:.\Generated_Source\PSoC5/OSC1_ISR.c **** 
 213:.\Generated_Source\PSoC5/OSC1_ISR.c **** 
 214:.\Generated_Source\PSoC5/OSC1_ISR.c **** /*******************************************************************************
 215:.\Generated_Source\PSoC5/OSC1_ISR.c **** * Function Name: OSC1_ISR_GetVector
 216:.\Generated_Source\PSoC5/OSC1_ISR.c **** ********************************************************************************
 217:.\Generated_Source\PSoC5/OSC1_ISR.c **** *
 218:.\Generated_Source\PSoC5/OSC1_ISR.c **** * Summary:
 219:.\Generated_Source\PSoC5/OSC1_ISR.c **** *   Gets the "address" of the current ISR vector for the Interrupt.
 220:.\Generated_Source\PSoC5/OSC1_ISR.c **** *
 221:.\Generated_Source\PSoC5/OSC1_ISR.c **** * Parameters:
 222:.\Generated_Source\PSoC5/OSC1_ISR.c **** *   None
 223:.\Generated_Source\PSoC5/OSC1_ISR.c **** *
 224:.\Generated_Source\PSoC5/OSC1_ISR.c **** * Return:
 225:.\Generated_Source\PSoC5/OSC1_ISR.c **** *   Address of the ISR in the interrupt vector table.
 226:.\Generated_Source\PSoC5/OSC1_ISR.c **** *
 227:.\Generated_Source\PSoC5/OSC1_ISR.c **** *******************************************************************************/
 228:.\Generated_Source\PSoC5/OSC1_ISR.c **** cyisraddress OSC1_ISR_GetVector(void)
 229:.\Generated_Source\PSoC5/OSC1_ISR.c **** {
  90              		.loc 1 229 0
  91              		.cfi_startproc
  92              		@ args = 0, pretend = 0, frame = 0
  93              		@ frame_needed = 0, uses_anonymous_args = 0
  94              		@ link register save eliminated.
 230:.\Generated_Source\PSoC5/OSC1_ISR.c ****     cyisraddress * ramVectorTable;
 231:.\Generated_Source\PSoC5/OSC1_ISR.c **** 
 232:.\Generated_Source\PSoC5/OSC1_ISR.c ****     ramVectorTable = (cyisraddress *) *CYINT_VECT_TABLE;
  95              		.loc 1 232 0
  96 0000 014B     		ldr	r3, .L7
  97 0002 1B68     		ldr	r3, [r3]
  98              	.LVL6:
 233:.\Generated_Source\PSoC5/OSC1_ISR.c **** 
 234:.\Generated_Source\PSoC5/OSC1_ISR.c ****     return ramVectorTable[CYINT_IRQ_BASE + (uint32)OSC1_ISR__INTC_NUMBER];
 235:.\Generated_Source\PSoC5/OSC1_ISR.c **** }
  99              		.loc 1 235 0
 100 0004 186C     		ldr	r0, [r3, #64]
 101 0006 7047     		bx	lr
 102              	.L8:
 103              		.align	2
 104              	.L7:
 105 0008 08ED00E0 		.word	-536810232
 106              		.cfi_endproc
 107              	.LFE5:
ARM GAS  C:\Users\214016~1\AppData\Local\Temp\ccW4XqOJ.s 			page 7


 108              		.size	OSC1_ISR_GetVector, .-OSC1_ISR_GetVector
 109              		.section	.text.OSC1_ISR_SetPriority,"ax",%progbits
 110              		.align	2
 111              		.global	OSC1_ISR_SetPriority
 112              		.thumb
 113              		.thumb_func
 114              		.type	OSC1_ISR_SetPriority, %function
 115              	OSC1_ISR_SetPriority:
 116              	.LFB6:
 236:.\Generated_Source\PSoC5/OSC1_ISR.c **** 
 237:.\Generated_Source\PSoC5/OSC1_ISR.c **** 
 238:.\Generated_Source\PSoC5/OSC1_ISR.c **** /*******************************************************************************
 239:.\Generated_Source\PSoC5/OSC1_ISR.c **** * Function Name: OSC1_ISR_SetPriority
 240:.\Generated_Source\PSoC5/OSC1_ISR.c **** ********************************************************************************
 241:.\Generated_Source\PSoC5/OSC1_ISR.c **** *
 242:.\Generated_Source\PSoC5/OSC1_ISR.c **** * Summary:
 243:.\Generated_Source\PSoC5/OSC1_ISR.c **** *   Sets the Priority of the Interrupt. 
 244:.\Generated_Source\PSoC5/OSC1_ISR.c **** *
 245:.\Generated_Source\PSoC5/OSC1_ISR.c **** *   Note calling OSC1_ISR_Start or OSC1_ISR_StartEx will 
 246:.\Generated_Source\PSoC5/OSC1_ISR.c **** *   override any effect this API would have had. This API should only be called
 247:.\Generated_Source\PSoC5/OSC1_ISR.c **** *   after OSC1_ISR_Start or OSC1_ISR_StartEx has been called. 
 248:.\Generated_Source\PSoC5/OSC1_ISR.c **** *   To set the initial priority for the component, use the Design-Wide Resources
 249:.\Generated_Source\PSoC5/OSC1_ISR.c **** *   Interrupt Editor.
 250:.\Generated_Source\PSoC5/OSC1_ISR.c **** *
 251:.\Generated_Source\PSoC5/OSC1_ISR.c **** *   Note This API has no effect on Non-maskable interrupt NMI).
 252:.\Generated_Source\PSoC5/OSC1_ISR.c **** *
 253:.\Generated_Source\PSoC5/OSC1_ISR.c **** * Parameters:
 254:.\Generated_Source\PSoC5/OSC1_ISR.c **** *   priority: Priority of the interrupt, 0 being the highest priority
 255:.\Generated_Source\PSoC5/OSC1_ISR.c **** *             PSoC 3 and PSoC 5LP: Priority is from 0 to 7.
 256:.\Generated_Source\PSoC5/OSC1_ISR.c **** *             PSoC 4: Priority is from 0 to 3.
 257:.\Generated_Source\PSoC5/OSC1_ISR.c **** *
 258:.\Generated_Source\PSoC5/OSC1_ISR.c **** * Return:
 259:.\Generated_Source\PSoC5/OSC1_ISR.c **** *   None
 260:.\Generated_Source\PSoC5/OSC1_ISR.c **** *
 261:.\Generated_Source\PSoC5/OSC1_ISR.c **** *******************************************************************************/
 262:.\Generated_Source\PSoC5/OSC1_ISR.c **** void OSC1_ISR_SetPriority(uint8 priority)
 263:.\Generated_Source\PSoC5/OSC1_ISR.c **** {
 117              		.loc 1 263 0
 118              		.cfi_startproc
 119              		@ args = 0, pretend = 0, frame = 0
 120              		@ frame_needed = 0, uses_anonymous_args = 0
 121              		@ link register save eliminated.
 122              	.LVL7:
 264:.\Generated_Source\PSoC5/OSC1_ISR.c ****     *OSC1_ISR_INTC_PRIOR = priority << 5;
 123              		.loc 1 264 0
 124 0000 4001     		lsls	r0, r0, #5
 125              	.LVL8:
 126 0002 C0B2     		uxtb	r0, r0
 127 0004 014B     		ldr	r3, .L10
 128 0006 1870     		strb	r0, [r3]
 129 0008 7047     		bx	lr
 130              	.L11:
 131 000a 00BF     		.align	2
 132              	.L10:
 133 000c 00E400E0 		.word	-536812544
 134              		.cfi_endproc
 135              	.LFE6:
ARM GAS  C:\Users\214016~1\AppData\Local\Temp\ccW4XqOJ.s 			page 8


 136              		.size	OSC1_ISR_SetPriority, .-OSC1_ISR_SetPriority
 137              		.section	.text.OSC1_ISR_GetPriority,"ax",%progbits
 138              		.align	2
 139              		.global	OSC1_ISR_GetPriority
 140              		.thumb
 141              		.thumb_func
 142              		.type	OSC1_ISR_GetPriority, %function
 143              	OSC1_ISR_GetPriority:
 144              	.LFB7:
 265:.\Generated_Source\PSoC5/OSC1_ISR.c **** }
 266:.\Generated_Source\PSoC5/OSC1_ISR.c **** 
 267:.\Generated_Source\PSoC5/OSC1_ISR.c **** 
 268:.\Generated_Source\PSoC5/OSC1_ISR.c **** /*******************************************************************************
 269:.\Generated_Source\PSoC5/OSC1_ISR.c **** * Function Name: OSC1_ISR_GetPriority
 270:.\Generated_Source\PSoC5/OSC1_ISR.c **** ********************************************************************************
 271:.\Generated_Source\PSoC5/OSC1_ISR.c **** *
 272:.\Generated_Source\PSoC5/OSC1_ISR.c **** * Summary:
 273:.\Generated_Source\PSoC5/OSC1_ISR.c **** *   Gets the Priority of the Interrupt.
 274:.\Generated_Source\PSoC5/OSC1_ISR.c **** *
 275:.\Generated_Source\PSoC5/OSC1_ISR.c **** * Parameters:
 276:.\Generated_Source\PSoC5/OSC1_ISR.c **** *   None
 277:.\Generated_Source\PSoC5/OSC1_ISR.c **** *
 278:.\Generated_Source\PSoC5/OSC1_ISR.c **** * Return:
 279:.\Generated_Source\PSoC5/OSC1_ISR.c **** *   Priority of the interrupt, 0 being the highest priority
 280:.\Generated_Source\PSoC5/OSC1_ISR.c **** *    PSoC 3 and PSoC 5LP: Priority is from 0 to 7.
 281:.\Generated_Source\PSoC5/OSC1_ISR.c **** *    PSoC 4: Priority is from 0 to 3.
 282:.\Generated_Source\PSoC5/OSC1_ISR.c **** *
 283:.\Generated_Source\PSoC5/OSC1_ISR.c **** *******************************************************************************/
 284:.\Generated_Source\PSoC5/OSC1_ISR.c **** uint8 OSC1_ISR_GetPriority(void)
 285:.\Generated_Source\PSoC5/OSC1_ISR.c **** {
 145              		.loc 1 285 0
 146              		.cfi_startproc
 147              		@ args = 0, pretend = 0, frame = 0
 148              		@ frame_needed = 0, uses_anonymous_args = 0
 149              		@ link register save eliminated.
 286:.\Generated_Source\PSoC5/OSC1_ISR.c ****     uint8 priority;
 287:.\Generated_Source\PSoC5/OSC1_ISR.c **** 
 288:.\Generated_Source\PSoC5/OSC1_ISR.c **** 
 289:.\Generated_Source\PSoC5/OSC1_ISR.c ****     priority = *OSC1_ISR_INTC_PRIOR >> 5;
 150              		.loc 1 289 0
 151 0000 014B     		ldr	r3, .L13
 152 0002 1878     		ldrb	r0, [r3]	@ zero_extendqisi2
 153              	.LVL9:
 290:.\Generated_Source\PSoC5/OSC1_ISR.c **** 
 291:.\Generated_Source\PSoC5/OSC1_ISR.c ****     return priority;
 292:.\Generated_Source\PSoC5/OSC1_ISR.c **** }
 154              		.loc 1 292 0
 155 0004 4009     		lsrs	r0, r0, #5
 156              	.LVL10:
 157 0006 7047     		bx	lr
 158              	.L14:
 159              		.align	2
 160              	.L13:
 161 0008 00E400E0 		.word	-536812544
 162              		.cfi_endproc
 163              	.LFE7:
 164              		.size	OSC1_ISR_GetPriority, .-OSC1_ISR_GetPriority
ARM GAS  C:\Users\214016~1\AppData\Local\Temp\ccW4XqOJ.s 			page 9


 165              		.section	.text.OSC1_ISR_Enable,"ax",%progbits
 166              		.align	2
 167              		.global	OSC1_ISR_Enable
 168              		.thumb
 169              		.thumb_func
 170              		.type	OSC1_ISR_Enable, %function
 171              	OSC1_ISR_Enable:
 172              	.LFB8:
 293:.\Generated_Source\PSoC5/OSC1_ISR.c **** 
 294:.\Generated_Source\PSoC5/OSC1_ISR.c **** 
 295:.\Generated_Source\PSoC5/OSC1_ISR.c **** /*******************************************************************************
 296:.\Generated_Source\PSoC5/OSC1_ISR.c **** * Function Name: OSC1_ISR_Enable
 297:.\Generated_Source\PSoC5/OSC1_ISR.c **** ********************************************************************************
 298:.\Generated_Source\PSoC5/OSC1_ISR.c **** *
 299:.\Generated_Source\PSoC5/OSC1_ISR.c **** * Summary:
 300:.\Generated_Source\PSoC5/OSC1_ISR.c **** *   Enables the interrupt to the interrupt controller. Do not call this function
 301:.\Generated_Source\PSoC5/OSC1_ISR.c **** *   unless ISR_Start() has been called or the functionality of the ISR_Start() 
 302:.\Generated_Source\PSoC5/OSC1_ISR.c **** *   function, which sets the vector and the priority, has been called.
 303:.\Generated_Source\PSoC5/OSC1_ISR.c **** *
 304:.\Generated_Source\PSoC5/OSC1_ISR.c **** * Parameters:
 305:.\Generated_Source\PSoC5/OSC1_ISR.c **** *   None
 306:.\Generated_Source\PSoC5/OSC1_ISR.c **** *
 307:.\Generated_Source\PSoC5/OSC1_ISR.c **** * Return:
 308:.\Generated_Source\PSoC5/OSC1_ISR.c **** *   None
 309:.\Generated_Source\PSoC5/OSC1_ISR.c **** *
 310:.\Generated_Source\PSoC5/OSC1_ISR.c **** *******************************************************************************/
 311:.\Generated_Source\PSoC5/OSC1_ISR.c **** void OSC1_ISR_Enable(void)
 312:.\Generated_Source\PSoC5/OSC1_ISR.c **** {
 173              		.loc 1 312 0
 174              		.cfi_startproc
 175              		@ args = 0, pretend = 0, frame = 0
 176              		@ frame_needed = 0, uses_anonymous_args = 0
 177              		@ link register save eliminated.
 313:.\Generated_Source\PSoC5/OSC1_ISR.c ****     /* Enable the general interrupt. */
 314:.\Generated_Source\PSoC5/OSC1_ISR.c ****     *OSC1_ISR_INTC_SET_EN = OSC1_ISR__INTC_MASK;
 178              		.loc 1 314 0
 179 0000 0122     		movs	r2, #1
 180 0002 014B     		ldr	r3, .L16
 181 0004 1A60     		str	r2, [r3]
 182 0006 7047     		bx	lr
 183              	.L17:
 184              		.align	2
 185              	.L16:
 186 0008 00E100E0 		.word	-536813312
 187              		.cfi_endproc
 188              	.LFE8:
 189              		.size	OSC1_ISR_Enable, .-OSC1_ISR_Enable
 190              		.section	.text.OSC1_ISR_GetState,"ax",%progbits
 191              		.align	2
 192              		.global	OSC1_ISR_GetState
 193              		.thumb
 194              		.thumb_func
 195              		.type	OSC1_ISR_GetState, %function
 196              	OSC1_ISR_GetState:
 197              	.LFB9:
 315:.\Generated_Source\PSoC5/OSC1_ISR.c **** }
 316:.\Generated_Source\PSoC5/OSC1_ISR.c **** 
ARM GAS  C:\Users\214016~1\AppData\Local\Temp\ccW4XqOJ.s 			page 10


 317:.\Generated_Source\PSoC5/OSC1_ISR.c **** 
 318:.\Generated_Source\PSoC5/OSC1_ISR.c **** /*******************************************************************************
 319:.\Generated_Source\PSoC5/OSC1_ISR.c **** * Function Name: OSC1_ISR_GetState
 320:.\Generated_Source\PSoC5/OSC1_ISR.c **** ********************************************************************************
 321:.\Generated_Source\PSoC5/OSC1_ISR.c **** *
 322:.\Generated_Source\PSoC5/OSC1_ISR.c **** * Summary:
 323:.\Generated_Source\PSoC5/OSC1_ISR.c **** *   Gets the state (enabled, disabled) of the Interrupt.
 324:.\Generated_Source\PSoC5/OSC1_ISR.c **** *
 325:.\Generated_Source\PSoC5/OSC1_ISR.c **** * Parameters:
 326:.\Generated_Source\PSoC5/OSC1_ISR.c **** *   None
 327:.\Generated_Source\PSoC5/OSC1_ISR.c **** *
 328:.\Generated_Source\PSoC5/OSC1_ISR.c **** * Return:
 329:.\Generated_Source\PSoC5/OSC1_ISR.c **** *   1 if enabled, 0 if disabled.
 330:.\Generated_Source\PSoC5/OSC1_ISR.c **** *
 331:.\Generated_Source\PSoC5/OSC1_ISR.c **** *******************************************************************************/
 332:.\Generated_Source\PSoC5/OSC1_ISR.c **** uint8 OSC1_ISR_GetState(void)
 333:.\Generated_Source\PSoC5/OSC1_ISR.c **** {
 198              		.loc 1 333 0
 199              		.cfi_startproc
 200              		@ args = 0, pretend = 0, frame = 0
 201              		@ frame_needed = 0, uses_anonymous_args = 0
 202              		@ link register save eliminated.
 334:.\Generated_Source\PSoC5/OSC1_ISR.c ****     /* Get the state of the general interrupt. */
 335:.\Generated_Source\PSoC5/OSC1_ISR.c ****     return ((*OSC1_ISR_INTC_SET_EN & (uint32)OSC1_ISR__INTC_MASK) != 0u) ? 1u:0u;
 203              		.loc 1 335 0
 204 0000 024B     		ldr	r3, .L19
 205 0002 1868     		ldr	r0, [r3]
 336:.\Generated_Source\PSoC5/OSC1_ISR.c **** }
 206              		.loc 1 336 0
 207 0004 00F00100 		and	r0, r0, #1
 208 0008 7047     		bx	lr
 209              	.L20:
 210 000a 00BF     		.align	2
 211              	.L19:
 212 000c 00E100E0 		.word	-536813312
 213              		.cfi_endproc
 214              	.LFE9:
 215              		.size	OSC1_ISR_GetState, .-OSC1_ISR_GetState
 216              		.section	.text.OSC1_ISR_Disable,"ax",%progbits
 217              		.align	2
 218              		.global	OSC1_ISR_Disable
 219              		.thumb
 220              		.thumb_func
 221              		.type	OSC1_ISR_Disable, %function
 222              	OSC1_ISR_Disable:
 223              	.LFB10:
 337:.\Generated_Source\PSoC5/OSC1_ISR.c **** 
 338:.\Generated_Source\PSoC5/OSC1_ISR.c **** 
 339:.\Generated_Source\PSoC5/OSC1_ISR.c **** /*******************************************************************************
 340:.\Generated_Source\PSoC5/OSC1_ISR.c **** * Function Name: OSC1_ISR_Disable
 341:.\Generated_Source\PSoC5/OSC1_ISR.c **** ********************************************************************************
 342:.\Generated_Source\PSoC5/OSC1_ISR.c **** *
 343:.\Generated_Source\PSoC5/OSC1_ISR.c **** * Summary:
 344:.\Generated_Source\PSoC5/OSC1_ISR.c **** *   Disables the Interrupt in the interrupt controller.
 345:.\Generated_Source\PSoC5/OSC1_ISR.c **** *
 346:.\Generated_Source\PSoC5/OSC1_ISR.c **** * Parameters:
 347:.\Generated_Source\PSoC5/OSC1_ISR.c **** *   None
ARM GAS  C:\Users\214016~1\AppData\Local\Temp\ccW4XqOJ.s 			page 11


 348:.\Generated_Source\PSoC5/OSC1_ISR.c **** *
 349:.\Generated_Source\PSoC5/OSC1_ISR.c **** * Return:
 350:.\Generated_Source\PSoC5/OSC1_ISR.c **** *   None
 351:.\Generated_Source\PSoC5/OSC1_ISR.c **** *
 352:.\Generated_Source\PSoC5/OSC1_ISR.c **** *******************************************************************************/
 353:.\Generated_Source\PSoC5/OSC1_ISR.c **** void OSC1_ISR_Disable(void)
 354:.\Generated_Source\PSoC5/OSC1_ISR.c **** {
 224              		.loc 1 354 0
 225              		.cfi_startproc
 226              		@ args = 0, pretend = 0, frame = 0
 227              		@ frame_needed = 0, uses_anonymous_args = 0
 228              		@ link register save eliminated.
 355:.\Generated_Source\PSoC5/OSC1_ISR.c ****     /* Disable the general interrupt. */
 356:.\Generated_Source\PSoC5/OSC1_ISR.c ****     *OSC1_ISR_INTC_CLR_EN = OSC1_ISR__INTC_MASK;
 229              		.loc 1 356 0
 230 0000 0122     		movs	r2, #1
 231 0002 014B     		ldr	r3, .L22
 232 0004 1A60     		str	r2, [r3]
 233 0006 7047     		bx	lr
 234              	.L23:
 235              		.align	2
 236              	.L22:
 237 0008 80E100E0 		.word	-536813184
 238              		.cfi_endproc
 239              	.LFE10:
 240              		.size	OSC1_ISR_Disable, .-OSC1_ISR_Disable
 241              		.section	.text.OSC1_ISR_Start,"ax",%progbits
 242              		.align	2
 243              		.global	OSC1_ISR_Start
 244              		.thumb
 245              		.thumb_func
 246              		.type	OSC1_ISR_Start, %function
 247              	OSC1_ISR_Start:
 248              	.LFB0:
  62:.\Generated_Source\PSoC5/OSC1_ISR.c ****     /* For all we know the interrupt is active. */
 249              		.loc 1 62 0
 250              		.cfi_startproc
 251              		@ args = 0, pretend = 0, frame = 0
 252              		@ frame_needed = 0, uses_anonymous_args = 0
 253 0000 08B5     		push	{r3, lr}
 254              		.cfi_def_cfa_offset 8
 255              		.cfi_offset 3, -8
 256              		.cfi_offset 14, -4
  64:.\Generated_Source\PSoC5/OSC1_ISR.c **** 
 257              		.loc 1 64 0
 258 0002 FFF7FEFF 		bl	OSC1_ISR_Disable
 259              	.LVL11:
  67:.\Generated_Source\PSoC5/OSC1_ISR.c **** 
 260              		.loc 1 67 0
 261 0006 0448     		ldr	r0, .L26
 262 0008 FFF7FEFF 		bl	OSC1_ISR_SetVector
 263              	.LVL12:
  70:.\Generated_Source\PSoC5/OSC1_ISR.c **** 
 264              		.loc 1 70 0
 265 000c 0720     		movs	r0, #7
 266 000e FFF7FEFF 		bl	OSC1_ISR_SetPriority
 267              	.LVL13:
ARM GAS  C:\Users\214016~1\AppData\Local\Temp\ccW4XqOJ.s 			page 12


  73:.\Generated_Source\PSoC5/OSC1_ISR.c **** }
 268              		.loc 1 73 0
 269 0012 FFF7FEFF 		bl	OSC1_ISR_Enable
 270              	.LVL14:
 271 0016 08BD     		pop	{r3, pc}
 272              	.L27:
 273              		.align	2
 274              	.L26:
 275 0018 00000000 		.word	OSC1_ISR_Interrupt
 276              		.cfi_endproc
 277              	.LFE0:
 278              		.size	OSC1_ISR_Start, .-OSC1_ISR_Start
 279              		.section	.text.OSC1_ISR_StartEx,"ax",%progbits
 280              		.align	2
 281              		.global	OSC1_ISR_StartEx
 282              		.thumb
 283              		.thumb_func
 284              		.type	OSC1_ISR_StartEx, %function
 285              	OSC1_ISR_StartEx:
 286              	.LFB1:
 105:.\Generated_Source\PSoC5/OSC1_ISR.c ****     /* For all we know the interrupt is active. */
 287              		.loc 1 105 0
 288              		.cfi_startproc
 289              		@ args = 0, pretend = 0, frame = 0
 290              		@ frame_needed = 0, uses_anonymous_args = 0
 291              	.LVL15:
 292 0000 10B5     		push	{r4, lr}
 293              		.cfi_def_cfa_offset 8
 294              		.cfi_offset 4, -8
 295              		.cfi_offset 14, -4
 296 0002 0446     		mov	r4, r0
 107:.\Generated_Source\PSoC5/OSC1_ISR.c **** 
 297              		.loc 1 107 0
 298 0004 FFF7FEFF 		bl	OSC1_ISR_Disable
 299              	.LVL16:
 110:.\Generated_Source\PSoC5/OSC1_ISR.c **** 
 300              		.loc 1 110 0
 301 0008 2046     		mov	r0, r4
 302 000a FFF7FEFF 		bl	OSC1_ISR_SetVector
 303              	.LVL17:
 113:.\Generated_Source\PSoC5/OSC1_ISR.c **** 
 304              		.loc 1 113 0
 305 000e 0720     		movs	r0, #7
 306 0010 FFF7FEFF 		bl	OSC1_ISR_SetPriority
 307              	.LVL18:
 116:.\Generated_Source\PSoC5/OSC1_ISR.c **** }
 308              		.loc 1 116 0
 309 0014 FFF7FEFF 		bl	OSC1_ISR_Enable
 310              	.LVL19:
 311 0018 10BD     		pop	{r4, pc}
 312              		.cfi_endproc
 313              	.LFE1:
 314              		.size	OSC1_ISR_StartEx, .-OSC1_ISR_StartEx
 315 001a 00BF     		.section	.text.OSC1_ISR_Stop,"ax",%progbits
 316              		.align	2
 317              		.global	OSC1_ISR_Stop
 318              		.thumb
ARM GAS  C:\Users\214016~1\AppData\Local\Temp\ccW4XqOJ.s 			page 13


 319              		.thumb_func
 320              		.type	OSC1_ISR_Stop, %function
 321              	OSC1_ISR_Stop:
 322              	.LFB2:
 135:.\Generated_Source\PSoC5/OSC1_ISR.c ****     /* Disable this interrupt. */
 323              		.loc 1 135 0
 324              		.cfi_startproc
 325              		@ args = 0, pretend = 0, frame = 0
 326              		@ frame_needed = 0, uses_anonymous_args = 0
 327 0000 08B5     		push	{r3, lr}
 328              		.cfi_def_cfa_offset 8
 329              		.cfi_offset 3, -8
 330              		.cfi_offset 14, -4
 137:.\Generated_Source\PSoC5/OSC1_ISR.c **** 
 331              		.loc 1 137 0
 332 0002 FFF7FEFF 		bl	OSC1_ISR_Disable
 333              	.LVL20:
 140:.\Generated_Source\PSoC5/OSC1_ISR.c **** }
 334              		.loc 1 140 0
 335 0006 0248     		ldr	r0, .L32
 336 0008 FFF7FEFF 		bl	OSC1_ISR_SetVector
 337              	.LVL21:
 338 000c 08BD     		pop	{r3, pc}
 339              	.L33:
 340 000e 00BF     		.align	2
 341              	.L32:
 342 0010 00000000 		.word	IntDefaultHandler
 343              		.cfi_endproc
 344              	.LFE2:
 345              		.size	OSC1_ISR_Stop, .-OSC1_ISR_Stop
 346              		.section	.text.OSC1_ISR_SetPending,"ax",%progbits
 347              		.align	2
 348              		.global	OSC1_ISR_SetPending
 349              		.thumb
 350              		.thumb_func
 351              		.type	OSC1_ISR_SetPending, %function
 352              	OSC1_ISR_SetPending:
 353              	.LFB11:
 357:.\Generated_Source\PSoC5/OSC1_ISR.c **** }
 358:.\Generated_Source\PSoC5/OSC1_ISR.c **** 
 359:.\Generated_Source\PSoC5/OSC1_ISR.c **** 
 360:.\Generated_Source\PSoC5/OSC1_ISR.c **** /*******************************************************************************
 361:.\Generated_Source\PSoC5/OSC1_ISR.c **** * Function Name: OSC1_ISR_SetPending
 362:.\Generated_Source\PSoC5/OSC1_ISR.c **** ********************************************************************************
 363:.\Generated_Source\PSoC5/OSC1_ISR.c **** *
 364:.\Generated_Source\PSoC5/OSC1_ISR.c **** * Summary:
 365:.\Generated_Source\PSoC5/OSC1_ISR.c **** *   Causes the Interrupt to enter the pending state, a software method of
 366:.\Generated_Source\PSoC5/OSC1_ISR.c **** *   generating the interrupt.
 367:.\Generated_Source\PSoC5/OSC1_ISR.c **** *
 368:.\Generated_Source\PSoC5/OSC1_ISR.c **** * Parameters:
 369:.\Generated_Source\PSoC5/OSC1_ISR.c **** *   None
 370:.\Generated_Source\PSoC5/OSC1_ISR.c **** *
 371:.\Generated_Source\PSoC5/OSC1_ISR.c **** * Return:
 372:.\Generated_Source\PSoC5/OSC1_ISR.c **** *   None
 373:.\Generated_Source\PSoC5/OSC1_ISR.c **** *
 374:.\Generated_Source\PSoC5/OSC1_ISR.c **** * Side Effects:
 375:.\Generated_Source\PSoC5/OSC1_ISR.c **** *   If interrupts are enabled and the interrupt is set up properly, the ISR is
ARM GAS  C:\Users\214016~1\AppData\Local\Temp\ccW4XqOJ.s 			page 14


 376:.\Generated_Source\PSoC5/OSC1_ISR.c **** *   entered (depending on the priority of this interrupt and other pending 
 377:.\Generated_Source\PSoC5/OSC1_ISR.c **** *   interrupts).
 378:.\Generated_Source\PSoC5/OSC1_ISR.c **** *
 379:.\Generated_Source\PSoC5/OSC1_ISR.c **** *******************************************************************************/
 380:.\Generated_Source\PSoC5/OSC1_ISR.c **** void OSC1_ISR_SetPending(void)
 381:.\Generated_Source\PSoC5/OSC1_ISR.c **** {
 354              		.loc 1 381 0
 355              		.cfi_startproc
 356              		@ args = 0, pretend = 0, frame = 0
 357              		@ frame_needed = 0, uses_anonymous_args = 0
 358              		@ link register save eliminated.
 382:.\Generated_Source\PSoC5/OSC1_ISR.c ****     *OSC1_ISR_INTC_SET_PD = OSC1_ISR__INTC_MASK;
 359              		.loc 1 382 0
 360 0000 0122     		movs	r2, #1
 361 0002 014B     		ldr	r3, .L35
 362 0004 1A60     		str	r2, [r3]
 363 0006 7047     		bx	lr
 364              	.L36:
 365              		.align	2
 366              	.L35:
 367 0008 00E200E0 		.word	-536813056
 368              		.cfi_endproc
 369              	.LFE11:
 370              		.size	OSC1_ISR_SetPending, .-OSC1_ISR_SetPending
 371              		.section	.text.OSC1_ISR_ClearPending,"ax",%progbits
 372              		.align	2
 373              		.global	OSC1_ISR_ClearPending
 374              		.thumb
 375              		.thumb_func
 376              		.type	OSC1_ISR_ClearPending, %function
 377              	OSC1_ISR_ClearPending:
 378              	.LFB12:
 383:.\Generated_Source\PSoC5/OSC1_ISR.c **** }
 384:.\Generated_Source\PSoC5/OSC1_ISR.c **** 
 385:.\Generated_Source\PSoC5/OSC1_ISR.c **** 
 386:.\Generated_Source\PSoC5/OSC1_ISR.c **** /*******************************************************************************
 387:.\Generated_Source\PSoC5/OSC1_ISR.c **** * Function Name: OSC1_ISR_ClearPending
 388:.\Generated_Source\PSoC5/OSC1_ISR.c **** ********************************************************************************
 389:.\Generated_Source\PSoC5/OSC1_ISR.c **** *
 390:.\Generated_Source\PSoC5/OSC1_ISR.c **** * Summary:
 391:.\Generated_Source\PSoC5/OSC1_ISR.c **** *   Clears a pending interrupt in the interrupt controller.
 392:.\Generated_Source\PSoC5/OSC1_ISR.c **** *
 393:.\Generated_Source\PSoC5/OSC1_ISR.c **** *   Note Some interrupt sources are clear-on-read and require the block 
 394:.\Generated_Source\PSoC5/OSC1_ISR.c **** *   interrupt/status register to be read/cleared with the appropriate block API 
 395:.\Generated_Source\PSoC5/OSC1_ISR.c **** *   (GPIO, UART, and so on). Otherwise the ISR will continue to remain in 
 396:.\Generated_Source\PSoC5/OSC1_ISR.c **** *   pending state even though the interrupt itself is cleared using this API.
 397:.\Generated_Source\PSoC5/OSC1_ISR.c **** *
 398:.\Generated_Source\PSoC5/OSC1_ISR.c **** * Parameters:
 399:.\Generated_Source\PSoC5/OSC1_ISR.c **** *   None
 400:.\Generated_Source\PSoC5/OSC1_ISR.c **** *
 401:.\Generated_Source\PSoC5/OSC1_ISR.c **** * Return:
 402:.\Generated_Source\PSoC5/OSC1_ISR.c **** *   None
 403:.\Generated_Source\PSoC5/OSC1_ISR.c **** *
 404:.\Generated_Source\PSoC5/OSC1_ISR.c **** *******************************************************************************/
 405:.\Generated_Source\PSoC5/OSC1_ISR.c **** void OSC1_ISR_ClearPending(void)
 406:.\Generated_Source\PSoC5/OSC1_ISR.c **** {
 379              		.loc 1 406 0
ARM GAS  C:\Users\214016~1\AppData\Local\Temp\ccW4XqOJ.s 			page 15


 380              		.cfi_startproc
 381              		@ args = 0, pretend = 0, frame = 0
 382              		@ frame_needed = 0, uses_anonymous_args = 0
 383              		@ link register save eliminated.
 407:.\Generated_Source\PSoC5/OSC1_ISR.c ****     *OSC1_ISR_INTC_CLR_PD = OSC1_ISR__INTC_MASK;
 384              		.loc 1 407 0
 385 0000 0122     		movs	r2, #1
 386 0002 014B     		ldr	r3, .L38
 387 0004 1A60     		str	r2, [r3]
 388 0006 7047     		bx	lr
 389              	.L39:
 390              		.align	2
 391              	.L38:
 392 0008 80E200E0 		.word	-536812928
 393              		.cfi_endproc
 394              	.LFE12:
 395              		.size	OSC1_ISR_ClearPending, .-OSC1_ISR_ClearPending
 396              		.text
 397              	.Letext0:
 398              		.file 2 "Generated_Source\\PSoC5/cytypes.h"
 399              		.file 3 "Generated_Source\\PSoC5/CyLib.h"