ARM GAS  C:\Users\214016~1\AppData\Local\Temp\ccWFLfM9.s 			page 1


   1              		.syntax unified
   2              		.cpu cortex-m3
   3              		.fpu softvfp
   4              		.eabi_attribute 20, 1
   5              		.eabi_attribute 21, 1
   6              		.eabi_attribute 23, 3
   7              		.eabi_attribute 24, 1
   8              		.eabi_attribute 25, 1
   9              		.eabi_attribute 26, 1
  10              		.eabi_attribute 30, 1
  11              		.eabi_attribute 34, 1
  12              		.eabi_attribute 18, 4
  13              		.thumb
  14              		.file	"OSC2_IDAC8_SAW_1.c"
  15              		.text
  16              	.Ltext0:
  17              		.cfi_sections	.debug_frame
  18              		.section	.text.OSC2_IDAC8_SAW_1_Enable,"ax",%progbits
  19              		.align	2
  20              		.global	OSC2_IDAC8_SAW_1_Enable
  21              		.thumb
  22              		.thumb_func
  23              		.type	OSC2_IDAC8_SAW_1_Enable, %function
  24              	OSC2_IDAC8_SAW_1_Enable:
  25              	.LFB1:
  26              		.file 1 ".\\Generated_Source\\PSoC5\\OSC2_IDAC8_SAW_1.c"
   1:.\Generated_Source\PSoC5/OSC2_IDAC8_SAW_1.c **** /*******************************************************************************
   2:.\Generated_Source\PSoC5/OSC2_IDAC8_SAW_1.c **** * File Name: OSC2_IDAC8_SAW_1.c
   3:.\Generated_Source\PSoC5/OSC2_IDAC8_SAW_1.c **** * Version 2.0
   4:.\Generated_Source\PSoC5/OSC2_IDAC8_SAW_1.c **** *
   5:.\Generated_Source\PSoC5/OSC2_IDAC8_SAW_1.c **** * Description:
   6:.\Generated_Source\PSoC5/OSC2_IDAC8_SAW_1.c **** *  This file provides the source code to the API for the 8-bit Current 
   7:.\Generated_Source\PSoC5/OSC2_IDAC8_SAW_1.c **** *  DAC (IDAC8) User Module.
   8:.\Generated_Source\PSoC5/OSC2_IDAC8_SAW_1.c **** *
   9:.\Generated_Source\PSoC5/OSC2_IDAC8_SAW_1.c **** * Note:
  10:.\Generated_Source\PSoC5/OSC2_IDAC8_SAW_1.c **** *  None
  11:.\Generated_Source\PSoC5/OSC2_IDAC8_SAW_1.c **** *
  12:.\Generated_Source\PSoC5/OSC2_IDAC8_SAW_1.c **** ********************************************************************************
  13:.\Generated_Source\PSoC5/OSC2_IDAC8_SAW_1.c **** * Copyright 2008-2012, Cypress Semiconductor Corporation.  All rights reserved.
  14:.\Generated_Source\PSoC5/OSC2_IDAC8_SAW_1.c **** * You may use this file only in accordance with the license, terms, conditions, 
  15:.\Generated_Source\PSoC5/OSC2_IDAC8_SAW_1.c **** * disclaimers, and limitations in the end user license agreement accompanying 
  16:.\Generated_Source\PSoC5/OSC2_IDAC8_SAW_1.c **** * the software package with which this file was provided.
  17:.\Generated_Source\PSoC5/OSC2_IDAC8_SAW_1.c **** *******************************************************************************/
  18:.\Generated_Source\PSoC5/OSC2_IDAC8_SAW_1.c **** 
  19:.\Generated_Source\PSoC5/OSC2_IDAC8_SAW_1.c **** #include "cytypes.h"
  20:.\Generated_Source\PSoC5/OSC2_IDAC8_SAW_1.c **** #include "OSC2_IDAC8_SAW_1.h"   
  21:.\Generated_Source\PSoC5/OSC2_IDAC8_SAW_1.c **** 
  22:.\Generated_Source\PSoC5/OSC2_IDAC8_SAW_1.c **** #if (CY_PSOC5A)
  23:.\Generated_Source\PSoC5/OSC2_IDAC8_SAW_1.c ****     #include <CyLib.h>
  24:.\Generated_Source\PSoC5/OSC2_IDAC8_SAW_1.c **** #endif /* CY_PSOC5A */
  25:.\Generated_Source\PSoC5/OSC2_IDAC8_SAW_1.c **** 
  26:.\Generated_Source\PSoC5/OSC2_IDAC8_SAW_1.c **** 
  27:.\Generated_Source\PSoC5/OSC2_IDAC8_SAW_1.c **** uint8 OSC2_IDAC8_SAW_1_initVar = 0u;
  28:.\Generated_Source\PSoC5/OSC2_IDAC8_SAW_1.c **** 
  29:.\Generated_Source\PSoC5/OSC2_IDAC8_SAW_1.c **** 
  30:.\Generated_Source\PSoC5/OSC2_IDAC8_SAW_1.c **** #if (CY_PSOC5A)
  31:.\Generated_Source\PSoC5/OSC2_IDAC8_SAW_1.c ****     static OSC2_IDAC8_SAW_1_LOWPOWER_BACKUP_STRUCT  OSC2_IDAC8_SAW_1_lowPowerBackup;
ARM GAS  C:\Users\214016~1\AppData\Local\Temp\ccWFLfM9.s 			page 2


  32:.\Generated_Source\PSoC5/OSC2_IDAC8_SAW_1.c **** #endif /* CY_PSOC5A */
  33:.\Generated_Source\PSoC5/OSC2_IDAC8_SAW_1.c **** 
  34:.\Generated_Source\PSoC5/OSC2_IDAC8_SAW_1.c **** /* Variable to decide whether or not to restore control register in Enable()
  35:.\Generated_Source\PSoC5/OSC2_IDAC8_SAW_1.c ****    API. This valid only for PSoC5A */
  36:.\Generated_Source\PSoC5/OSC2_IDAC8_SAW_1.c **** #if (CY_PSOC5A)
  37:.\Generated_Source\PSoC5/OSC2_IDAC8_SAW_1.c ****     static uint8 OSC2_IDAC8_SAW_1_restoreReg = 0u;
  38:.\Generated_Source\PSoC5/OSC2_IDAC8_SAW_1.c **** #endif /* CY_PSOC5A */
  39:.\Generated_Source\PSoC5/OSC2_IDAC8_SAW_1.c **** 
  40:.\Generated_Source\PSoC5/OSC2_IDAC8_SAW_1.c **** 
  41:.\Generated_Source\PSoC5/OSC2_IDAC8_SAW_1.c **** /*******************************************************************************
  42:.\Generated_Source\PSoC5/OSC2_IDAC8_SAW_1.c **** * Function Name: OSC2_IDAC8_SAW_1_Init
  43:.\Generated_Source\PSoC5/OSC2_IDAC8_SAW_1.c **** ********************************************************************************
  44:.\Generated_Source\PSoC5/OSC2_IDAC8_SAW_1.c **** * Summary:
  45:.\Generated_Source\PSoC5/OSC2_IDAC8_SAW_1.c **** *  Initialize to the schematic state.
  46:.\Generated_Source\PSoC5/OSC2_IDAC8_SAW_1.c **** * 
  47:.\Generated_Source\PSoC5/OSC2_IDAC8_SAW_1.c **** * Parameters:
  48:.\Generated_Source\PSoC5/OSC2_IDAC8_SAW_1.c **** *  void:
  49:.\Generated_Source\PSoC5/OSC2_IDAC8_SAW_1.c **** *
  50:.\Generated_Source\PSoC5/OSC2_IDAC8_SAW_1.c **** * Return:
  51:.\Generated_Source\PSoC5/OSC2_IDAC8_SAW_1.c **** *  (void)
  52:.\Generated_Source\PSoC5/OSC2_IDAC8_SAW_1.c **** *
  53:.\Generated_Source\PSoC5/OSC2_IDAC8_SAW_1.c **** * Theory:
  54:.\Generated_Source\PSoC5/OSC2_IDAC8_SAW_1.c **** *
  55:.\Generated_Source\PSoC5/OSC2_IDAC8_SAW_1.c **** * Side Effects:
  56:.\Generated_Source\PSoC5/OSC2_IDAC8_SAW_1.c **** *
  57:.\Generated_Source\PSoC5/OSC2_IDAC8_SAW_1.c **** *******************************************************************************/
  58:.\Generated_Source\PSoC5/OSC2_IDAC8_SAW_1.c **** void OSC2_IDAC8_SAW_1_Init(void) 
  59:.\Generated_Source\PSoC5/OSC2_IDAC8_SAW_1.c **** {
  60:.\Generated_Source\PSoC5/OSC2_IDAC8_SAW_1.c ****     OSC2_IDAC8_SAW_1_CR0 = (OSC2_IDAC8_SAW_1_MODE_I | OSC2_IDAC8_SAW_1_DEFAULT_RANGE );
  61:.\Generated_Source\PSoC5/OSC2_IDAC8_SAW_1.c **** 
  62:.\Generated_Source\PSoC5/OSC2_IDAC8_SAW_1.c ****     /* Set default data source */
  63:.\Generated_Source\PSoC5/OSC2_IDAC8_SAW_1.c ****     #if(OSC2_IDAC8_SAW_1_DEFAULT_DATA_SRC != 0u )    
  64:.\Generated_Source\PSoC5/OSC2_IDAC8_SAW_1.c ****         OSC2_IDAC8_SAW_1_CR1 = (OSC2_IDAC8_SAW_1_DEFAULT_CNTL | OSC2_IDAC8_SAW_1_DACBUS_ENABLE);
  65:.\Generated_Source\PSoC5/OSC2_IDAC8_SAW_1.c ****     #else
  66:.\Generated_Source\PSoC5/OSC2_IDAC8_SAW_1.c ****         OSC2_IDAC8_SAW_1_CR1 = (OSC2_IDAC8_SAW_1_DEFAULT_CNTL | OSC2_IDAC8_SAW_1_DACBUS_DISABLE);
  67:.\Generated_Source\PSoC5/OSC2_IDAC8_SAW_1.c ****     #endif /* (OSC2_IDAC8_SAW_1_DEFAULT_DATA_SRC != 0u ) */
  68:.\Generated_Source\PSoC5/OSC2_IDAC8_SAW_1.c ****     
  69:.\Generated_Source\PSoC5/OSC2_IDAC8_SAW_1.c ****     /*Controls polarity from UDB Control*/
  70:.\Generated_Source\PSoC5/OSC2_IDAC8_SAW_1.c ****     #if(OSC2_IDAC8_SAW_1_DEFAULT_POLARITY == OSC2_IDAC8_SAW_1_HARDWARE_CONTROLLED)
  71:.\Generated_Source\PSoC5/OSC2_IDAC8_SAW_1.c ****         OSC2_IDAC8_SAW_1_CR1 |= OSC2_IDAC8_SAW_1_IDIR_SRC_UDB;
  72:.\Generated_Source\PSoC5/OSC2_IDAC8_SAW_1.c ****     #else
  73:.\Generated_Source\PSoC5/OSC2_IDAC8_SAW_1.c ****         OSC2_IDAC8_SAW_1_CR1 |= OSC2_IDAC8_SAW_1_DEFAULT_POLARITY;
  74:.\Generated_Source\PSoC5/OSC2_IDAC8_SAW_1.c ****     #endif/* (OSC2_IDAC8_SAW_1_DEFAULT_POLARITY == OSC2_IDAC8_SAW_1_HARDWARE_CONTROLLED) */
  75:.\Generated_Source\PSoC5/OSC2_IDAC8_SAW_1.c ****     /*Controls Current Source from UDB Control*/
  76:.\Generated_Source\PSoC5/OSC2_IDAC8_SAW_1.c ****     #if(OSC2_IDAC8_SAW_1_HARDWARE_ENABLE != 0u ) 
  77:.\Generated_Source\PSoC5/OSC2_IDAC8_SAW_1.c ****         OSC2_IDAC8_SAW_1_CR1 |= OSC2_IDAC8_SAW_1_IDIR_CTL_UDB;
  78:.\Generated_Source\PSoC5/OSC2_IDAC8_SAW_1.c ****     #endif /* (OSC2_IDAC8_SAW_1_HARDWARE_ENABLE != 0u ) */ 
  79:.\Generated_Source\PSoC5/OSC2_IDAC8_SAW_1.c ****     
  80:.\Generated_Source\PSoC5/OSC2_IDAC8_SAW_1.c ****     /* Set default strobe mode */
  81:.\Generated_Source\PSoC5/OSC2_IDAC8_SAW_1.c ****     #if(OSC2_IDAC8_SAW_1_DEFAULT_STRB != 0u)
  82:.\Generated_Source\PSoC5/OSC2_IDAC8_SAW_1.c ****         OSC2_IDAC8_SAW_1_Strobe |= OSC2_IDAC8_SAW_1_STRB_EN;
  83:.\Generated_Source\PSoC5/OSC2_IDAC8_SAW_1.c ****     #endif /* (OSC2_IDAC8_SAW_1_DEFAULT_STRB != 0u) */
  84:.\Generated_Source\PSoC5/OSC2_IDAC8_SAW_1.c ****     
  85:.\Generated_Source\PSoC5/OSC2_IDAC8_SAW_1.c ****     /* Set default speed */
  86:.\Generated_Source\PSoC5/OSC2_IDAC8_SAW_1.c ****     OSC2_IDAC8_SAW_1_SetSpeed(OSC2_IDAC8_SAW_1_DEFAULT_SPEED);
  87:.\Generated_Source\PSoC5/OSC2_IDAC8_SAW_1.c ****     
  88:.\Generated_Source\PSoC5/OSC2_IDAC8_SAW_1.c ****     /* Set proper DAC trim */
ARM GAS  C:\Users\214016~1\AppData\Local\Temp\ccWFLfM9.s 			page 3


  89:.\Generated_Source\PSoC5/OSC2_IDAC8_SAW_1.c ****     OSC2_IDAC8_SAW_1_DacTrim();
  90:.\Generated_Source\PSoC5/OSC2_IDAC8_SAW_1.c ****     
  91:.\Generated_Source\PSoC5/OSC2_IDAC8_SAW_1.c **** }
  92:.\Generated_Source\PSoC5/OSC2_IDAC8_SAW_1.c **** 
  93:.\Generated_Source\PSoC5/OSC2_IDAC8_SAW_1.c **** 
  94:.\Generated_Source\PSoC5/OSC2_IDAC8_SAW_1.c **** /*******************************************************************************
  95:.\Generated_Source\PSoC5/OSC2_IDAC8_SAW_1.c **** * Function Name: OSC2_IDAC8_SAW_1_Enable
  96:.\Generated_Source\PSoC5/OSC2_IDAC8_SAW_1.c **** ********************************************************************************
  97:.\Generated_Source\PSoC5/OSC2_IDAC8_SAW_1.c **** * Summary:
  98:.\Generated_Source\PSoC5/OSC2_IDAC8_SAW_1.c **** *  Enable the IDAC8
  99:.\Generated_Source\PSoC5/OSC2_IDAC8_SAW_1.c **** * 
 100:.\Generated_Source\PSoC5/OSC2_IDAC8_SAW_1.c **** * Parameters:
 101:.\Generated_Source\PSoC5/OSC2_IDAC8_SAW_1.c **** *  void:
 102:.\Generated_Source\PSoC5/OSC2_IDAC8_SAW_1.c **** *
 103:.\Generated_Source\PSoC5/OSC2_IDAC8_SAW_1.c **** * Return:
 104:.\Generated_Source\PSoC5/OSC2_IDAC8_SAW_1.c **** *  (void)
 105:.\Generated_Source\PSoC5/OSC2_IDAC8_SAW_1.c **** *
 106:.\Generated_Source\PSoC5/OSC2_IDAC8_SAW_1.c **** * Theory:
 107:.\Generated_Source\PSoC5/OSC2_IDAC8_SAW_1.c **** *
 108:.\Generated_Source\PSoC5/OSC2_IDAC8_SAW_1.c **** * Side Effects:
 109:.\Generated_Source\PSoC5/OSC2_IDAC8_SAW_1.c **** *
 110:.\Generated_Source\PSoC5/OSC2_IDAC8_SAW_1.c **** *******************************************************************************/
 111:.\Generated_Source\PSoC5/OSC2_IDAC8_SAW_1.c **** void OSC2_IDAC8_SAW_1_Enable(void) 
 112:.\Generated_Source\PSoC5/OSC2_IDAC8_SAW_1.c **** {
  27              		.loc 1 112 0
  28              		.cfi_startproc
  29              		@ args = 0, pretend = 0, frame = 0
  30              		@ frame_needed = 0, uses_anonymous_args = 0
  31              		@ link register save eliminated.
 113:.\Generated_Source\PSoC5/OSC2_IDAC8_SAW_1.c ****     OSC2_IDAC8_SAW_1_PWRMGR |= OSC2_IDAC8_SAW_1_ACT_PWR_EN;
  32              		.loc 1 113 0
  33 0000 054A     		ldr	r2, .L2
  34 0002 1378     		ldrb	r3, [r2]	@ zero_extendqisi2
  35 0004 43F00203 		orr	r3, r3, #2
  36 0008 1370     		strb	r3, [r2]
 114:.\Generated_Source\PSoC5/OSC2_IDAC8_SAW_1.c ****     OSC2_IDAC8_SAW_1_STBY_PWRMGR |= OSC2_IDAC8_SAW_1_STBY_PWR_EN;
  37              		.loc 1 114 0
  38 000a 1032     		adds	r2, r2, #16
  39 000c 1378     		ldrb	r3, [r2]	@ zero_extendqisi2
  40 000e 43F00203 		orr	r3, r3, #2
  41 0012 1370     		strb	r3, [r2]
  42 0014 7047     		bx	lr
  43              	.L3:
  44 0016 00BF     		.align	2
  45              	.L2:
  46 0018 A8430040 		.word	1073759144
  47              		.cfi_endproc
  48              	.LFE1:
  49              		.size	OSC2_IDAC8_SAW_1_Enable, .-OSC2_IDAC8_SAW_1_Enable
  50              		.section	.text.OSC2_IDAC8_SAW_1_Stop,"ax",%progbits
  51              		.align	2
  52              		.global	OSC2_IDAC8_SAW_1_Stop
  53              		.thumb
  54              		.thumb_func
  55              		.type	OSC2_IDAC8_SAW_1_Stop, %function
  56              	OSC2_IDAC8_SAW_1_Stop:
  57              	.LFB3:
ARM GAS  C:\Users\214016~1\AppData\Local\Temp\ccWFLfM9.s 			page 4


 115:.\Generated_Source\PSoC5/OSC2_IDAC8_SAW_1.c **** 
 116:.\Generated_Source\PSoC5/OSC2_IDAC8_SAW_1.c ****     /* This is to restore the value of register CR0 which is saved 
 117:.\Generated_Source\PSoC5/OSC2_IDAC8_SAW_1.c ****       in prior to the modification in stop() API */
 118:.\Generated_Source\PSoC5/OSC2_IDAC8_SAW_1.c ****     #if (CY_PSOC5A)
 119:.\Generated_Source\PSoC5/OSC2_IDAC8_SAW_1.c ****         if(OSC2_IDAC8_SAW_1_restoreReg == 1u)
 120:.\Generated_Source\PSoC5/OSC2_IDAC8_SAW_1.c ****         {
 121:.\Generated_Source\PSoC5/OSC2_IDAC8_SAW_1.c ****             OSC2_IDAC8_SAW_1_CR0 = OSC2_IDAC8_SAW_1_lowPowerBackup.DACCR0Reg;
 122:.\Generated_Source\PSoC5/OSC2_IDAC8_SAW_1.c **** 
 123:.\Generated_Source\PSoC5/OSC2_IDAC8_SAW_1.c ****             /* Clear the flag */
 124:.\Generated_Source\PSoC5/OSC2_IDAC8_SAW_1.c ****             OSC2_IDAC8_SAW_1_restoreReg = 0u;
 125:.\Generated_Source\PSoC5/OSC2_IDAC8_SAW_1.c ****         }
 126:.\Generated_Source\PSoC5/OSC2_IDAC8_SAW_1.c ****     #endif /* CY_PSOC5A */
 127:.\Generated_Source\PSoC5/OSC2_IDAC8_SAW_1.c **** }
 128:.\Generated_Source\PSoC5/OSC2_IDAC8_SAW_1.c **** 
 129:.\Generated_Source\PSoC5/OSC2_IDAC8_SAW_1.c **** 
 130:.\Generated_Source\PSoC5/OSC2_IDAC8_SAW_1.c **** /*******************************************************************************
 131:.\Generated_Source\PSoC5/OSC2_IDAC8_SAW_1.c **** * Function Name: OSC2_IDAC8_SAW_1_Start
 132:.\Generated_Source\PSoC5/OSC2_IDAC8_SAW_1.c **** ********************************************************************************
 133:.\Generated_Source\PSoC5/OSC2_IDAC8_SAW_1.c **** * Summary:
 134:.\Generated_Source\PSoC5/OSC2_IDAC8_SAW_1.c **** *  Set power level then turn on IDAC8.
 135:.\Generated_Source\PSoC5/OSC2_IDAC8_SAW_1.c **** *
 136:.\Generated_Source\PSoC5/OSC2_IDAC8_SAW_1.c **** * Parameters:  
 137:.\Generated_Source\PSoC5/OSC2_IDAC8_SAW_1.c **** *  power: Sets power level between off (0) and (3) high power
 138:.\Generated_Source\PSoC5/OSC2_IDAC8_SAW_1.c **** *
 139:.\Generated_Source\PSoC5/OSC2_IDAC8_SAW_1.c **** * Return:
 140:.\Generated_Source\PSoC5/OSC2_IDAC8_SAW_1.c **** *  (void)
 141:.\Generated_Source\PSoC5/OSC2_IDAC8_SAW_1.c **** *
 142:.\Generated_Source\PSoC5/OSC2_IDAC8_SAW_1.c **** * Global variables:
 143:.\Generated_Source\PSoC5/OSC2_IDAC8_SAW_1.c **** *  OSC2_IDAC8_SAW_1_initVar: Is modified when this function is called for 
 144:.\Generated_Source\PSoC5/OSC2_IDAC8_SAW_1.c **** *   the first time. Is used to ensure that initialization happens only once.
 145:.\Generated_Source\PSoC5/OSC2_IDAC8_SAW_1.c **** *
 146:.\Generated_Source\PSoC5/OSC2_IDAC8_SAW_1.c **** *******************************************************************************/
 147:.\Generated_Source\PSoC5/OSC2_IDAC8_SAW_1.c **** void OSC2_IDAC8_SAW_1_Start(void) 
 148:.\Generated_Source\PSoC5/OSC2_IDAC8_SAW_1.c **** {
 149:.\Generated_Source\PSoC5/OSC2_IDAC8_SAW_1.c ****     /* Hardware initiazation only needs to occur the first time */
 150:.\Generated_Source\PSoC5/OSC2_IDAC8_SAW_1.c ****     if ( OSC2_IDAC8_SAW_1_initVar == 0u)  
 151:.\Generated_Source\PSoC5/OSC2_IDAC8_SAW_1.c ****     {
 152:.\Generated_Source\PSoC5/OSC2_IDAC8_SAW_1.c ****         OSC2_IDAC8_SAW_1_Init();
 153:.\Generated_Source\PSoC5/OSC2_IDAC8_SAW_1.c ****         
 154:.\Generated_Source\PSoC5/OSC2_IDAC8_SAW_1.c ****         OSC2_IDAC8_SAW_1_initVar = 1u;
 155:.\Generated_Source\PSoC5/OSC2_IDAC8_SAW_1.c ****     }
 156:.\Generated_Source\PSoC5/OSC2_IDAC8_SAW_1.c ****    
 157:.\Generated_Source\PSoC5/OSC2_IDAC8_SAW_1.c ****     /* Enable power to DAC */
 158:.\Generated_Source\PSoC5/OSC2_IDAC8_SAW_1.c ****     OSC2_IDAC8_SAW_1_Enable();
 159:.\Generated_Source\PSoC5/OSC2_IDAC8_SAW_1.c **** 
 160:.\Generated_Source\PSoC5/OSC2_IDAC8_SAW_1.c ****     /* Set default value */
 161:.\Generated_Source\PSoC5/OSC2_IDAC8_SAW_1.c ****     OSC2_IDAC8_SAW_1_SetValue(OSC2_IDAC8_SAW_1_DEFAULT_DATA);
 162:.\Generated_Source\PSoC5/OSC2_IDAC8_SAW_1.c **** 
 163:.\Generated_Source\PSoC5/OSC2_IDAC8_SAW_1.c **** }
 164:.\Generated_Source\PSoC5/OSC2_IDAC8_SAW_1.c **** 
 165:.\Generated_Source\PSoC5/OSC2_IDAC8_SAW_1.c **** 
 166:.\Generated_Source\PSoC5/OSC2_IDAC8_SAW_1.c **** /*******************************************************************************
 167:.\Generated_Source\PSoC5/OSC2_IDAC8_SAW_1.c **** * Function Name: OSC2_IDAC8_SAW_1_Stop
 168:.\Generated_Source\PSoC5/OSC2_IDAC8_SAW_1.c **** ********************************************************************************
 169:.\Generated_Source\PSoC5/OSC2_IDAC8_SAW_1.c **** * Summary:
 170:.\Generated_Source\PSoC5/OSC2_IDAC8_SAW_1.c **** *  Powers down IDAC8 to lowest power state.
 171:.\Generated_Source\PSoC5/OSC2_IDAC8_SAW_1.c **** *
ARM GAS  C:\Users\214016~1\AppData\Local\Temp\ccWFLfM9.s 			page 5


 172:.\Generated_Source\PSoC5/OSC2_IDAC8_SAW_1.c **** * Parameters:
 173:.\Generated_Source\PSoC5/OSC2_IDAC8_SAW_1.c **** *  (void)
 174:.\Generated_Source\PSoC5/OSC2_IDAC8_SAW_1.c **** *
 175:.\Generated_Source\PSoC5/OSC2_IDAC8_SAW_1.c **** * Return:
 176:.\Generated_Source\PSoC5/OSC2_IDAC8_SAW_1.c **** *  (void)
 177:.\Generated_Source\PSoC5/OSC2_IDAC8_SAW_1.c **** *
 178:.\Generated_Source\PSoC5/OSC2_IDAC8_SAW_1.c **** * Theory:
 179:.\Generated_Source\PSoC5/OSC2_IDAC8_SAW_1.c **** *
 180:.\Generated_Source\PSoC5/OSC2_IDAC8_SAW_1.c **** * Side Effects:
 181:.\Generated_Source\PSoC5/OSC2_IDAC8_SAW_1.c **** *
 182:.\Generated_Source\PSoC5/OSC2_IDAC8_SAW_1.c **** *******************************************************************************/
 183:.\Generated_Source\PSoC5/OSC2_IDAC8_SAW_1.c **** void OSC2_IDAC8_SAW_1_Stop(void) 
 184:.\Generated_Source\PSoC5/OSC2_IDAC8_SAW_1.c **** {
  58              		.loc 1 184 0
  59              		.cfi_startproc
  60              		@ args = 0, pretend = 0, frame = 0
  61              		@ frame_needed = 0, uses_anonymous_args = 0
  62              		@ link register save eliminated.
 185:.\Generated_Source\PSoC5/OSC2_IDAC8_SAW_1.c ****     /* Disble power to DAC */
 186:.\Generated_Source\PSoC5/OSC2_IDAC8_SAW_1.c ****     OSC2_IDAC8_SAW_1_PWRMGR &= (uint8)(~OSC2_IDAC8_SAW_1_ACT_PWR_EN);
  63              		.loc 1 186 0
  64 0000 054A     		ldr	r2, .L5
  65 0002 1378     		ldrb	r3, [r2]	@ zero_extendqisi2
  66 0004 03F0FD03 		and	r3, r3, #253
  67 0008 1370     		strb	r3, [r2]
 187:.\Generated_Source\PSoC5/OSC2_IDAC8_SAW_1.c ****     OSC2_IDAC8_SAW_1_STBY_PWRMGR &= (uint8)(~OSC2_IDAC8_SAW_1_STBY_PWR_EN);
  68              		.loc 1 187 0
  69 000a 1032     		adds	r2, r2, #16
  70 000c 1378     		ldrb	r3, [r2]	@ zero_extendqisi2
  71 000e 03F0FD03 		and	r3, r3, #253
  72 0012 1370     		strb	r3, [r2]
  73 0014 7047     		bx	lr
  74              	.L6:
  75 0016 00BF     		.align	2
  76              	.L5:
  77 0018 A8430040 		.word	1073759144
  78              		.cfi_endproc
  79              	.LFE3:
  80              		.size	OSC2_IDAC8_SAW_1_Stop, .-OSC2_IDAC8_SAW_1_Stop
  81              		.section	.text.OSC2_IDAC8_SAW_1_SetSpeed,"ax",%progbits
  82              		.align	2
  83              		.global	OSC2_IDAC8_SAW_1_SetSpeed
  84              		.thumb
  85              		.thumb_func
  86              		.type	OSC2_IDAC8_SAW_1_SetSpeed, %function
  87              	OSC2_IDAC8_SAW_1_SetSpeed:
  88              	.LFB4:
 188:.\Generated_Source\PSoC5/OSC2_IDAC8_SAW_1.c ****     
 189:.\Generated_Source\PSoC5/OSC2_IDAC8_SAW_1.c ****     #if (CY_PSOC5A)
 190:.\Generated_Source\PSoC5/OSC2_IDAC8_SAW_1.c ****     
 191:.\Generated_Source\PSoC5/OSC2_IDAC8_SAW_1.c ****         /* Set the global variable  */
 192:.\Generated_Source\PSoC5/OSC2_IDAC8_SAW_1.c ****         OSC2_IDAC8_SAW_1_restoreReg = 1u;
 193:.\Generated_Source\PSoC5/OSC2_IDAC8_SAW_1.c **** 
 194:.\Generated_Source\PSoC5/OSC2_IDAC8_SAW_1.c ****         /* Save the control register and then Clear it. */
 195:.\Generated_Source\PSoC5/OSC2_IDAC8_SAW_1.c ****         OSC2_IDAC8_SAW_1_lowPowerBackup.DACCR0Reg = OSC2_IDAC8_SAW_1_CR0;
 196:.\Generated_Source\PSoC5/OSC2_IDAC8_SAW_1.c ****         OSC2_IDAC8_SAW_1_CR0 = (OSC2_IDAC8_SAW_1_MODE_I | OSC2_IDAC8_SAW_1_RANGE_3 | OSC2_IDAC8_SAW
 197:.\Generated_Source\PSoC5/OSC2_IDAC8_SAW_1.c ****     #endif /* CY_PSOC5A */
ARM GAS  C:\Users\214016~1\AppData\Local\Temp\ccWFLfM9.s 			page 6


 198:.\Generated_Source\PSoC5/OSC2_IDAC8_SAW_1.c **** }
 199:.\Generated_Source\PSoC5/OSC2_IDAC8_SAW_1.c **** 
 200:.\Generated_Source\PSoC5/OSC2_IDAC8_SAW_1.c **** 
 201:.\Generated_Source\PSoC5/OSC2_IDAC8_SAW_1.c **** /*******************************************************************************
 202:.\Generated_Source\PSoC5/OSC2_IDAC8_SAW_1.c **** * Function Name: OSC2_IDAC8_SAW_1_SetSpeed
 203:.\Generated_Source\PSoC5/OSC2_IDAC8_SAW_1.c **** ********************************************************************************
 204:.\Generated_Source\PSoC5/OSC2_IDAC8_SAW_1.c **** * Summary:
 205:.\Generated_Source\PSoC5/OSC2_IDAC8_SAW_1.c **** *  Set DAC speed
 206:.\Generated_Source\PSoC5/OSC2_IDAC8_SAW_1.c **** *
 207:.\Generated_Source\PSoC5/OSC2_IDAC8_SAW_1.c **** * Parameters:
 208:.\Generated_Source\PSoC5/OSC2_IDAC8_SAW_1.c **** *  power: Sets speed value
 209:.\Generated_Source\PSoC5/OSC2_IDAC8_SAW_1.c **** *
 210:.\Generated_Source\PSoC5/OSC2_IDAC8_SAW_1.c **** * Return:
 211:.\Generated_Source\PSoC5/OSC2_IDAC8_SAW_1.c **** *  (void)
 212:.\Generated_Source\PSoC5/OSC2_IDAC8_SAW_1.c **** *
 213:.\Generated_Source\PSoC5/OSC2_IDAC8_SAW_1.c **** * Theory:
 214:.\Generated_Source\PSoC5/OSC2_IDAC8_SAW_1.c **** *
 215:.\Generated_Source\PSoC5/OSC2_IDAC8_SAW_1.c **** * Side Effects:
 216:.\Generated_Source\PSoC5/OSC2_IDAC8_SAW_1.c **** *
 217:.\Generated_Source\PSoC5/OSC2_IDAC8_SAW_1.c **** *******************************************************************************/
 218:.\Generated_Source\PSoC5/OSC2_IDAC8_SAW_1.c **** void OSC2_IDAC8_SAW_1_SetSpeed(uint8 speed) 
 219:.\Generated_Source\PSoC5/OSC2_IDAC8_SAW_1.c **** {
  89              		.loc 1 219 0
  90              		.cfi_startproc
  91              		@ args = 0, pretend = 0, frame = 0
  92              		@ frame_needed = 0, uses_anonymous_args = 0
  93              		@ link register save eliminated.
  94              	.LVL0:
 220:.\Generated_Source\PSoC5/OSC2_IDAC8_SAW_1.c ****     /* Clear power mask then write in new value */
 221:.\Generated_Source\PSoC5/OSC2_IDAC8_SAW_1.c ****     OSC2_IDAC8_SAW_1_CR0 &= (uint8)(~OSC2_IDAC8_SAW_1_HS_MASK);
  95              		.loc 1 221 0
  96 0000 054B     		ldr	r3, .L8
  97 0002 1A78     		ldrb	r2, [r3]	@ zero_extendqisi2
  98 0004 02F0FD02 		and	r2, r2, #253
  99 0008 1A70     		strb	r2, [r3]
 222:.\Generated_Source\PSoC5/OSC2_IDAC8_SAW_1.c ****     OSC2_IDAC8_SAW_1_CR0 |=  ( speed & OSC2_IDAC8_SAW_1_HS_MASK);
 100              		.loc 1 222 0
 101 000a 1A78     		ldrb	r2, [r3]	@ zero_extendqisi2
 102 000c 00F00200 		and	r0, r0, #2
 103              	.LVL1:
 104 0010 1043     		orrs	r0, r0, r2
 105 0012 1870     		strb	r0, [r3]
 106 0014 7047     		bx	lr
 107              	.L9:
 108 0016 00BF     		.align	2
 109              	.L8:
 110 0018 24580040 		.word	1073764388
 111              		.cfi_endproc
 112              	.LFE4:
 113              		.size	OSC2_IDAC8_SAW_1_SetSpeed, .-OSC2_IDAC8_SAW_1_SetSpeed
 114              		.section	.text.OSC2_IDAC8_SAW_1_SetValue,"ax",%progbits
 115              		.align	2
 116              		.global	OSC2_IDAC8_SAW_1_SetValue
 117              		.thumb
 118              		.thumb_func
 119              		.type	OSC2_IDAC8_SAW_1_SetValue, %function
 120              	OSC2_IDAC8_SAW_1_SetValue:
ARM GAS  C:\Users\214016~1\AppData\Local\Temp\ccWFLfM9.s 			page 7


 121              	.LFB6:
 223:.\Generated_Source\PSoC5/OSC2_IDAC8_SAW_1.c **** }
 224:.\Generated_Source\PSoC5/OSC2_IDAC8_SAW_1.c **** 
 225:.\Generated_Source\PSoC5/OSC2_IDAC8_SAW_1.c **** 
 226:.\Generated_Source\PSoC5/OSC2_IDAC8_SAW_1.c **** /*******************************************************************************
 227:.\Generated_Source\PSoC5/OSC2_IDAC8_SAW_1.c **** * Function Name: OSC2_IDAC8_SAW_1_SetPolarity
 228:.\Generated_Source\PSoC5/OSC2_IDAC8_SAW_1.c **** ********************************************************************************
 229:.\Generated_Source\PSoC5/OSC2_IDAC8_SAW_1.c **** * Summary:
 230:.\Generated_Source\PSoC5/OSC2_IDAC8_SAW_1.c **** *  Sets IDAC to Sink or Source current.
 231:.\Generated_Source\PSoC5/OSC2_IDAC8_SAW_1.c **** *  
 232:.\Generated_Source\PSoC5/OSC2_IDAC8_SAW_1.c **** * Parameters:
 233:.\Generated_Source\PSoC5/OSC2_IDAC8_SAW_1.c **** *  Polarity: Sets the IDAC to Sink or Source 
 234:.\Generated_Source\PSoC5/OSC2_IDAC8_SAW_1.c **** *  0x00 - Source
 235:.\Generated_Source\PSoC5/OSC2_IDAC8_SAW_1.c **** *  0x04 - Sink
 236:.\Generated_Source\PSoC5/OSC2_IDAC8_SAW_1.c **** *
 237:.\Generated_Source\PSoC5/OSC2_IDAC8_SAW_1.c **** * Return:
 238:.\Generated_Source\PSoC5/OSC2_IDAC8_SAW_1.c **** *  (void)
 239:.\Generated_Source\PSoC5/OSC2_IDAC8_SAW_1.c **** *
 240:.\Generated_Source\PSoC5/OSC2_IDAC8_SAW_1.c **** * Theory:
 241:.\Generated_Source\PSoC5/OSC2_IDAC8_SAW_1.c **** *
 242:.\Generated_Source\PSoC5/OSC2_IDAC8_SAW_1.c **** * Side Effects:
 243:.\Generated_Source\PSoC5/OSC2_IDAC8_SAW_1.c **** *
 244:.\Generated_Source\PSoC5/OSC2_IDAC8_SAW_1.c **** *******************************************************************************/
 245:.\Generated_Source\PSoC5/OSC2_IDAC8_SAW_1.c **** #if(OSC2_IDAC8_SAW_1_DEFAULT_POLARITY != OSC2_IDAC8_SAW_1_HARDWARE_CONTROLLED)
 246:.\Generated_Source\PSoC5/OSC2_IDAC8_SAW_1.c ****     void OSC2_IDAC8_SAW_1_SetPolarity(uint8 polarity) 
 247:.\Generated_Source\PSoC5/OSC2_IDAC8_SAW_1.c ****     {
 248:.\Generated_Source\PSoC5/OSC2_IDAC8_SAW_1.c ****         OSC2_IDAC8_SAW_1_CR1 &= (uint8)(~OSC2_IDAC8_SAW_1_IDIR_MASK);                /* clear polar
 249:.\Generated_Source\PSoC5/OSC2_IDAC8_SAW_1.c ****         OSC2_IDAC8_SAW_1_CR1 |= (polarity & OSC2_IDAC8_SAW_1_IDIR_MASK);             /* set new val
 250:.\Generated_Source\PSoC5/OSC2_IDAC8_SAW_1.c ****     
 251:.\Generated_Source\PSoC5/OSC2_IDAC8_SAW_1.c ****         OSC2_IDAC8_SAW_1_DacTrim();
 252:.\Generated_Source\PSoC5/OSC2_IDAC8_SAW_1.c ****     }
 253:.\Generated_Source\PSoC5/OSC2_IDAC8_SAW_1.c **** #endif/*(OSC2_IDAC8_SAW_1_DEFAULT_POLARITY != OSC2_IDAC8_SAW_1_HARDWARE_CONTROLLED)*/
 254:.\Generated_Source\PSoC5/OSC2_IDAC8_SAW_1.c **** 
 255:.\Generated_Source\PSoC5/OSC2_IDAC8_SAW_1.c **** 
 256:.\Generated_Source\PSoC5/OSC2_IDAC8_SAW_1.c **** /*******************************************************************************
 257:.\Generated_Source\PSoC5/OSC2_IDAC8_SAW_1.c **** * Function Name: OSC2_IDAC8_SAW_1_SetRange
 258:.\Generated_Source\PSoC5/OSC2_IDAC8_SAW_1.c **** ********************************************************************************
 259:.\Generated_Source\PSoC5/OSC2_IDAC8_SAW_1.c **** * Summary:
 260:.\Generated_Source\PSoC5/OSC2_IDAC8_SAW_1.c **** *  Set current range
 261:.\Generated_Source\PSoC5/OSC2_IDAC8_SAW_1.c **** *
 262:.\Generated_Source\PSoC5/OSC2_IDAC8_SAW_1.c **** * Parameters:
 263:.\Generated_Source\PSoC5/OSC2_IDAC8_SAW_1.c **** *  Range: Sets on of four valid ranges.
 264:.\Generated_Source\PSoC5/OSC2_IDAC8_SAW_1.c **** *
 265:.\Generated_Source\PSoC5/OSC2_IDAC8_SAW_1.c **** * Return:
 266:.\Generated_Source\PSoC5/OSC2_IDAC8_SAW_1.c **** *  (void)
 267:.\Generated_Source\PSoC5/OSC2_IDAC8_SAW_1.c **** *
 268:.\Generated_Source\PSoC5/OSC2_IDAC8_SAW_1.c **** * Theory:
 269:.\Generated_Source\PSoC5/OSC2_IDAC8_SAW_1.c **** *
 270:.\Generated_Source\PSoC5/OSC2_IDAC8_SAW_1.c **** * Side Effects:
 271:.\Generated_Source\PSoC5/OSC2_IDAC8_SAW_1.c **** *
 272:.\Generated_Source\PSoC5/OSC2_IDAC8_SAW_1.c **** *******************************************************************************/
 273:.\Generated_Source\PSoC5/OSC2_IDAC8_SAW_1.c **** void OSC2_IDAC8_SAW_1_SetRange(uint8 range) 
 274:.\Generated_Source\PSoC5/OSC2_IDAC8_SAW_1.c **** {
 275:.\Generated_Source\PSoC5/OSC2_IDAC8_SAW_1.c ****     OSC2_IDAC8_SAW_1_CR0 &= (uint8)(~OSC2_IDAC8_SAW_1_RANGE_MASK);       /* Clear existing mode */
 276:.\Generated_Source\PSoC5/OSC2_IDAC8_SAW_1.c ****     OSC2_IDAC8_SAW_1_CR0 |= ( range & OSC2_IDAC8_SAW_1_RANGE_MASK );     /*  Set Range  */
 277:.\Generated_Source\PSoC5/OSC2_IDAC8_SAW_1.c ****     OSC2_IDAC8_SAW_1_DacTrim();
 278:.\Generated_Source\PSoC5/OSC2_IDAC8_SAW_1.c **** }
ARM GAS  C:\Users\214016~1\AppData\Local\Temp\ccWFLfM9.s 			page 8


 279:.\Generated_Source\PSoC5/OSC2_IDAC8_SAW_1.c **** 
 280:.\Generated_Source\PSoC5/OSC2_IDAC8_SAW_1.c **** 
 281:.\Generated_Source\PSoC5/OSC2_IDAC8_SAW_1.c **** /*******************************************************************************
 282:.\Generated_Source\PSoC5/OSC2_IDAC8_SAW_1.c **** * Function Name: OSC2_IDAC8_SAW_1_SetValue
 283:.\Generated_Source\PSoC5/OSC2_IDAC8_SAW_1.c **** ********************************************************************************
 284:.\Generated_Source\PSoC5/OSC2_IDAC8_SAW_1.c **** * Summary:
 285:.\Generated_Source\PSoC5/OSC2_IDAC8_SAW_1.c **** *  Set DAC value
 286:.\Generated_Source\PSoC5/OSC2_IDAC8_SAW_1.c **** *
 287:.\Generated_Source\PSoC5/OSC2_IDAC8_SAW_1.c **** * Parameters:
 288:.\Generated_Source\PSoC5/OSC2_IDAC8_SAW_1.c **** *  value: Sets DAC value between 0 and 255.
 289:.\Generated_Source\PSoC5/OSC2_IDAC8_SAW_1.c **** *
 290:.\Generated_Source\PSoC5/OSC2_IDAC8_SAW_1.c **** * Return:
 291:.\Generated_Source\PSoC5/OSC2_IDAC8_SAW_1.c **** *  (void)
 292:.\Generated_Source\PSoC5/OSC2_IDAC8_SAW_1.c **** *
 293:.\Generated_Source\PSoC5/OSC2_IDAC8_SAW_1.c **** * Theory:
 294:.\Generated_Source\PSoC5/OSC2_IDAC8_SAW_1.c **** *
 295:.\Generated_Source\PSoC5/OSC2_IDAC8_SAW_1.c **** * Side Effects:
 296:.\Generated_Source\PSoC5/OSC2_IDAC8_SAW_1.c **** *
 297:.\Generated_Source\PSoC5/OSC2_IDAC8_SAW_1.c **** *******************************************************************************/
 298:.\Generated_Source\PSoC5/OSC2_IDAC8_SAW_1.c **** void OSC2_IDAC8_SAW_1_SetValue(uint8 value) 
 299:.\Generated_Source\PSoC5/OSC2_IDAC8_SAW_1.c **** {
 122              		.loc 1 299 0
 123              		.cfi_startproc
 124              		@ args = 0, pretend = 0, frame = 0
 125              		@ frame_needed = 0, uses_anonymous_args = 0
 126              		@ link register save eliminated.
 127              	.LVL2:
 300:.\Generated_Source\PSoC5/OSC2_IDAC8_SAW_1.c **** 
 301:.\Generated_Source\PSoC5/OSC2_IDAC8_SAW_1.c ****     #if (CY_PSOC5A)
 302:.\Generated_Source\PSoC5/OSC2_IDAC8_SAW_1.c ****         uint8 OSC2_IDAC8_SAW_1_intrStatus = CyEnterCriticalSection();
 303:.\Generated_Source\PSoC5/OSC2_IDAC8_SAW_1.c ****     #endif /* CY_PSOC5A */
 304:.\Generated_Source\PSoC5/OSC2_IDAC8_SAW_1.c **** 
 305:.\Generated_Source\PSoC5/OSC2_IDAC8_SAW_1.c ****     OSC2_IDAC8_SAW_1_Data = value;         /*  Set Value  */
 128              		.loc 1 305 0
 129 0000 014B     		ldr	r3, .L11
 130 0002 1870     		strb	r0, [r3]
 131 0004 7047     		bx	lr
 132              	.L12:
 133 0006 00BF     		.align	2
 134              	.L11:
 135 0008 815B0040 		.word	1073765249
 136              		.cfi_endproc
 137              	.LFE6:
 138              		.size	OSC2_IDAC8_SAW_1_SetValue, .-OSC2_IDAC8_SAW_1_SetValue
 139              		.section	.text.OSC2_IDAC8_SAW_1_DacTrim,"ax",%progbits
 140              		.align	2
 141              		.global	OSC2_IDAC8_SAW_1_DacTrim
 142              		.thumb
 143              		.thumb_func
 144              		.type	OSC2_IDAC8_SAW_1_DacTrim, %function
 145              	OSC2_IDAC8_SAW_1_DacTrim:
 146              	.LFB7:
 306:.\Generated_Source\PSoC5/OSC2_IDAC8_SAW_1.c ****     
 307:.\Generated_Source\PSoC5/OSC2_IDAC8_SAW_1.c ****     /* PSOC5A silicons require a double write */
 308:.\Generated_Source\PSoC5/OSC2_IDAC8_SAW_1.c ****     #if (CY_PSOC5A)
 309:.\Generated_Source\PSoC5/OSC2_IDAC8_SAW_1.c ****         OSC2_IDAC8_SAW_1_Data = value;
 310:.\Generated_Source\PSoC5/OSC2_IDAC8_SAW_1.c ****         CyExitCriticalSection(OSC2_IDAC8_SAW_1_intrStatus);
ARM GAS  C:\Users\214016~1\AppData\Local\Temp\ccWFLfM9.s 			page 9


 311:.\Generated_Source\PSoC5/OSC2_IDAC8_SAW_1.c ****     #endif /* CY_PSOC5A */
 312:.\Generated_Source\PSoC5/OSC2_IDAC8_SAW_1.c **** }
 313:.\Generated_Source\PSoC5/OSC2_IDAC8_SAW_1.c **** 
 314:.\Generated_Source\PSoC5/OSC2_IDAC8_SAW_1.c **** 
 315:.\Generated_Source\PSoC5/OSC2_IDAC8_SAW_1.c **** /*******************************************************************************
 316:.\Generated_Source\PSoC5/OSC2_IDAC8_SAW_1.c **** * Function Name: OSC2_IDAC8_SAW_1_DacTrim
 317:.\Generated_Source\PSoC5/OSC2_IDAC8_SAW_1.c **** ********************************************************************************
 318:.\Generated_Source\PSoC5/OSC2_IDAC8_SAW_1.c **** * Summary:
 319:.\Generated_Source\PSoC5/OSC2_IDAC8_SAW_1.c **** *  Set the trim value for the given range.
 320:.\Generated_Source\PSoC5/OSC2_IDAC8_SAW_1.c **** *
 321:.\Generated_Source\PSoC5/OSC2_IDAC8_SAW_1.c **** * Parameters:
 322:.\Generated_Source\PSoC5/OSC2_IDAC8_SAW_1.c **** *  None
 323:.\Generated_Source\PSoC5/OSC2_IDAC8_SAW_1.c **** *
 324:.\Generated_Source\PSoC5/OSC2_IDAC8_SAW_1.c **** * Return:
 325:.\Generated_Source\PSoC5/OSC2_IDAC8_SAW_1.c **** *  (void) 
 326:.\Generated_Source\PSoC5/OSC2_IDAC8_SAW_1.c **** *
 327:.\Generated_Source\PSoC5/OSC2_IDAC8_SAW_1.c **** * Theory:
 328:.\Generated_Source\PSoC5/OSC2_IDAC8_SAW_1.c **** *  Trim values for the IDAC blocks are stored in the "Customer Table" area in 
 329:.\Generated_Source\PSoC5/OSC2_IDAC8_SAW_1.c **** *  Row 1 of the Hidden Flash.  There are 8 bytes of trim data for each 
 330:.\Generated_Source\PSoC5/OSC2_IDAC8_SAW_1.c **** *  IDAC block.
 331:.\Generated_Source\PSoC5/OSC2_IDAC8_SAW_1.c **** *  The values are:
 332:.\Generated_Source\PSoC5/OSC2_IDAC8_SAW_1.c **** *       I Gain offset, min range, Sourcing
 333:.\Generated_Source\PSoC5/OSC2_IDAC8_SAW_1.c **** *       I Gain offset, min range, Sinking
 334:.\Generated_Source\PSoC5/OSC2_IDAC8_SAW_1.c **** *       I Gain offset, med range, Sourcing
 335:.\Generated_Source\PSoC5/OSC2_IDAC8_SAW_1.c **** *       I Gain offset, med range, Sinking
 336:.\Generated_Source\PSoC5/OSC2_IDAC8_SAW_1.c **** *       I Gain offset, max range, Sourcing
 337:.\Generated_Source\PSoC5/OSC2_IDAC8_SAW_1.c **** *       I Gain offset, max range, Sinking
 338:.\Generated_Source\PSoC5/OSC2_IDAC8_SAW_1.c **** *       V Gain offset, 1V range
 339:.\Generated_Source\PSoC5/OSC2_IDAC8_SAW_1.c **** *       V Gain offset, 4V range
 340:.\Generated_Source\PSoC5/OSC2_IDAC8_SAW_1.c **** *
 341:.\Generated_Source\PSoC5/OSC2_IDAC8_SAW_1.c **** * Side Effects:
 342:.\Generated_Source\PSoC5/OSC2_IDAC8_SAW_1.c **** *
 343:.\Generated_Source\PSoC5/OSC2_IDAC8_SAW_1.c **** *******************************************************************************/
 344:.\Generated_Source\PSoC5/OSC2_IDAC8_SAW_1.c **** void OSC2_IDAC8_SAW_1_DacTrim(void) 
 345:.\Generated_Source\PSoC5/OSC2_IDAC8_SAW_1.c **** {
 147              		.loc 1 345 0
 148              		.cfi_startproc
 149              		@ args = 0, pretend = 0, frame = 0
 150              		@ frame_needed = 0, uses_anonymous_args = 0
 151              		@ link register save eliminated.
 346:.\Generated_Source\PSoC5/OSC2_IDAC8_SAW_1.c ****     uint8 mode;
 347:.\Generated_Source\PSoC5/OSC2_IDAC8_SAW_1.c **** 
 348:.\Generated_Source\PSoC5/OSC2_IDAC8_SAW_1.c ****     mode = ((OSC2_IDAC8_SAW_1_CR0 & OSC2_IDAC8_SAW_1_RANGE_MASK) >> 1u);
 152              		.loc 1 348 0
 153 0000 094B     		ldr	r3, .L15
 154 0002 1B78     		ldrb	r3, [r3]	@ zero_extendqisi2
 155 0004 03F00C03 		and	r3, r3, #12
 156 0008 5B08     		lsrs	r3, r3, #1
 157              	.LVL3:
 349:.\Generated_Source\PSoC5/OSC2_IDAC8_SAW_1.c ****     
 350:.\Generated_Source\PSoC5/OSC2_IDAC8_SAW_1.c ****     if((OSC2_IDAC8_SAW_1_IDIR_MASK & OSC2_IDAC8_SAW_1_CR1) == OSC2_IDAC8_SAW_1_IDIR_SINK)
 158              		.loc 1 350 0
 159 000a 084A     		ldr	r2, .L15+4
 160 000c 1278     		ldrb	r2, [r2]	@ zero_extendqisi2
 161 000e 12F0040F 		tst	r2, #4
 162 0012 00D0     		beq	.L14
 351:.\Generated_Source\PSoC5/OSC2_IDAC8_SAW_1.c ****     {
ARM GAS  C:\Users\214016~1\AppData\Local\Temp\ccWFLfM9.s 			page 10


 352:.\Generated_Source\PSoC5/OSC2_IDAC8_SAW_1.c ****         mode++;
 163              		.loc 1 352 0
 164 0014 0133     		adds	r3, r3, #1
 165              	.LVL4:
 166              	.L14:
 353:.\Generated_Source\PSoC5/OSC2_IDAC8_SAW_1.c ****     }
 354:.\Generated_Source\PSoC5/OSC2_IDAC8_SAW_1.c **** 
 355:.\Generated_Source\PSoC5/OSC2_IDAC8_SAW_1.c ****     OSC2_IDAC8_SAW_1_TR = CY_GET_XTND_REG8((uint8 *)(OSC2_IDAC8_SAW_1_DAC_TRIM_BASE + mode));
 167              		.loc 1 355 0
 168 0016 03F19243 		add	r3, r3, #1224736768
 169              	.LVL5:
 170 001a 93F83031 		ldrb	r3, [r3, #304]	@ zero_extendqisi2
 171 001e DBB2     		uxtb	r3, r3
 172 0020 034A     		ldr	r2, .L15+8
 173 0022 1370     		strb	r3, [r2]
 174 0024 7047     		bx	lr
 175              	.L16:
 176 0026 00BF     		.align	2
 177              	.L15:
 178 0028 24580040 		.word	1073764388
 179 002c 25580040 		.word	1073764389
 180 0030 09460040 		.word	1073759753
 181              		.cfi_endproc
 182              	.LFE7:
 183              		.size	OSC2_IDAC8_SAW_1_DacTrim, .-OSC2_IDAC8_SAW_1_DacTrim
 184              		.section	.text.OSC2_IDAC8_SAW_1_Init,"ax",%progbits
 185              		.align	2
 186              		.global	OSC2_IDAC8_SAW_1_Init
 187              		.thumb
 188              		.thumb_func
 189              		.type	OSC2_IDAC8_SAW_1_Init, %function
 190              	OSC2_IDAC8_SAW_1_Init:
 191              	.LFB0:
  59:.\Generated_Source\PSoC5/OSC2_IDAC8_SAW_1.c ****     OSC2_IDAC8_SAW_1_CR0 = (OSC2_IDAC8_SAW_1_MODE_I | OSC2_IDAC8_SAW_1_DEFAULT_RANGE );
 192              		.loc 1 59 0
 193              		.cfi_startproc
 194              		@ args = 0, pretend = 0, frame = 0
 195              		@ frame_needed = 0, uses_anonymous_args = 0
 196 0000 08B5     		push	{r3, lr}
 197              		.cfi_def_cfa_offset 8
 198              		.cfi_offset 3, -8
 199              		.cfi_offset 14, -4
  60:.\Generated_Source\PSoC5/OSC2_IDAC8_SAW_1.c **** 
 200              		.loc 1 60 0
 201 0002 1822     		movs	r2, #24
 202 0004 064B     		ldr	r3, .L19
 203 0006 1A70     		strb	r2, [r3]
  66:.\Generated_Source\PSoC5/OSC2_IDAC8_SAW_1.c ****     #endif /* (OSC2_IDAC8_SAW_1_DEFAULT_DATA_SRC != 0u ) */
 204              		.loc 1 66 0
 205 0008 0133     		adds	r3, r3, #1
 206 000a 0020     		movs	r0, #0
 207 000c 1870     		strb	r0, [r3]
  71:.\Generated_Source\PSoC5/OSC2_IDAC8_SAW_1.c ****     #else
 208              		.loc 1 71 0
 209 000e 1A78     		ldrb	r2, [r3]	@ zero_extendqisi2
 210 0010 42F00802 		orr	r2, r2, #8
 211 0014 1A70     		strb	r2, [r3]
ARM GAS  C:\Users\214016~1\AppData\Local\Temp\ccWFLfM9.s 			page 11


  86:.\Generated_Source\PSoC5/OSC2_IDAC8_SAW_1.c ****     
 212              		.loc 1 86 0
 213 0016 FFF7FEFF 		bl	OSC2_IDAC8_SAW_1_SetSpeed
 214              	.LVL6:
  89:.\Generated_Source\PSoC5/OSC2_IDAC8_SAW_1.c ****     
 215              		.loc 1 89 0
 216 001a FFF7FEFF 		bl	OSC2_IDAC8_SAW_1_DacTrim
 217              	.LVL7:
 218 001e 08BD     		pop	{r3, pc}
 219              	.L20:
 220              		.align	2
 221              	.L19:
 222 0020 24580040 		.word	1073764388
 223              		.cfi_endproc
 224              	.LFE0:
 225              		.size	OSC2_IDAC8_SAW_1_Init, .-OSC2_IDAC8_SAW_1_Init
 226              		.section	.text.OSC2_IDAC8_SAW_1_Start,"ax",%progbits
 227              		.align	2
 228              		.global	OSC2_IDAC8_SAW_1_Start
 229              		.thumb
 230              		.thumb_func
 231              		.type	OSC2_IDAC8_SAW_1_Start, %function
 232              	OSC2_IDAC8_SAW_1_Start:
 233              	.LFB2:
 148:.\Generated_Source\PSoC5/OSC2_IDAC8_SAW_1.c ****     /* Hardware initiazation only needs to occur the first time */
 234              		.loc 1 148 0
 235              		.cfi_startproc
 236              		@ args = 0, pretend = 0, frame = 0
 237              		@ frame_needed = 0, uses_anonymous_args = 0
 238 0000 08B5     		push	{r3, lr}
 239              		.cfi_def_cfa_offset 8
 240              		.cfi_offset 3, -8
 241              		.cfi_offset 14, -4
 150:.\Generated_Source\PSoC5/OSC2_IDAC8_SAW_1.c ****     {
 242              		.loc 1 150 0
 243 0002 074B     		ldr	r3, .L24
 244 0004 1B78     		ldrb	r3, [r3]	@ zero_extendqisi2
 245 0006 23B9     		cbnz	r3, .L22
 152:.\Generated_Source\PSoC5/OSC2_IDAC8_SAW_1.c ****         
 246              		.loc 1 152 0
 247 0008 FFF7FEFF 		bl	OSC2_IDAC8_SAW_1_Init
 248              	.LVL8:
 154:.\Generated_Source\PSoC5/OSC2_IDAC8_SAW_1.c ****     }
 249              		.loc 1 154 0
 250 000c 0122     		movs	r2, #1
 251 000e 044B     		ldr	r3, .L24
 252 0010 1A70     		strb	r2, [r3]
 253              	.L22:
 158:.\Generated_Source\PSoC5/OSC2_IDAC8_SAW_1.c **** 
 254              		.loc 1 158 0
 255 0012 FFF7FEFF 		bl	OSC2_IDAC8_SAW_1_Enable
 256              	.LVL9:
 161:.\Generated_Source\PSoC5/OSC2_IDAC8_SAW_1.c **** 
 257              		.loc 1 161 0
 258 0016 7820     		movs	r0, #120
 259 0018 FFF7FEFF 		bl	OSC2_IDAC8_SAW_1_SetValue
 260              	.LVL10:
ARM GAS  C:\Users\214016~1\AppData\Local\Temp\ccWFLfM9.s 			page 12


 261 001c 08BD     		pop	{r3, pc}
 262              	.L25:
 263 001e 00BF     		.align	2
 264              	.L24:
 265 0020 00000000 		.word	.LANCHOR0
 266              		.cfi_endproc
 267              	.LFE2:
 268              		.size	OSC2_IDAC8_SAW_1_Start, .-OSC2_IDAC8_SAW_1_Start
 269              		.section	.text.OSC2_IDAC8_SAW_1_SetRange,"ax",%progbits
 270              		.align	2
 271              		.global	OSC2_IDAC8_SAW_1_SetRange
 272              		.thumb
 273              		.thumb_func
 274              		.type	OSC2_IDAC8_SAW_1_SetRange, %function
 275              	OSC2_IDAC8_SAW_1_SetRange:
 276              	.LFB5:
 274:.\Generated_Source\PSoC5/OSC2_IDAC8_SAW_1.c ****     OSC2_IDAC8_SAW_1_CR0 &= (uint8)(~OSC2_IDAC8_SAW_1_RANGE_MASK);       /* Clear existing mode */
 277              		.loc 1 274 0
 278              		.cfi_startproc
 279              		@ args = 0, pretend = 0, frame = 0
 280              		@ frame_needed = 0, uses_anonymous_args = 0
 281              	.LVL11:
 282 0000 08B5     		push	{r3, lr}
 283              		.cfi_def_cfa_offset 8
 284              		.cfi_offset 3, -8
 285              		.cfi_offset 14, -4
 275:.\Generated_Source\PSoC5/OSC2_IDAC8_SAW_1.c ****     OSC2_IDAC8_SAW_1_CR0 |= ( range & OSC2_IDAC8_SAW_1_RANGE_MASK );     /*  Set Range  */
 286              		.loc 1 275 0
 287 0002 064B     		ldr	r3, .L28
 288 0004 1A78     		ldrb	r2, [r3]	@ zero_extendqisi2
 289 0006 02F0F302 		and	r2, r2, #243
 290 000a 1A70     		strb	r2, [r3]
 276:.\Generated_Source\PSoC5/OSC2_IDAC8_SAW_1.c ****     OSC2_IDAC8_SAW_1_DacTrim();
 291              		.loc 1 276 0
 292 000c 1A78     		ldrb	r2, [r3]	@ zero_extendqisi2
 293 000e 00F00C00 		and	r0, r0, #12
 294              	.LVL12:
 295 0012 1043     		orrs	r0, r0, r2
 296 0014 1870     		strb	r0, [r3]
 277:.\Generated_Source\PSoC5/OSC2_IDAC8_SAW_1.c **** }
 297              		.loc 1 277 0
 298 0016 FFF7FEFF 		bl	OSC2_IDAC8_SAW_1_DacTrim
 299              	.LVL13:
 300 001a 08BD     		pop	{r3, pc}
 301              	.L29:
 302              		.align	2
 303              	.L28:
 304 001c 24580040 		.word	1073764388
 305              		.cfi_endproc
 306              	.LFE5:
 307              		.size	OSC2_IDAC8_SAW_1_SetRange, .-OSC2_IDAC8_SAW_1_SetRange
 308              		.global	OSC2_IDAC8_SAW_1_initVar
 309              		.bss
 310              		.set	.LANCHOR0,. + 0
 311              		.type	OSC2_IDAC8_SAW_1_initVar, %object
 312              		.size	OSC2_IDAC8_SAW_1_initVar, 1
 313              	OSC2_IDAC8_SAW_1_initVar:
ARM GAS  C:\Users\214016~1\AppData\Local\Temp\ccWFLfM9.s 			page 13


 314 0000 00       		.space	1
 315              		.text
 316              	.Letext0:
 317              		.file 2 ".\\Generated_Source\\PSoC5\\cytypes.h"